
Deneme1.elf:     file format elf32-littlearm

Sections:
Idx Name          Size      VMA       LMA       File off  Algn
  0 .isr_vector   000001f0  08000000  08000000  00001000  2**0
                  CONTENTS, ALLOC, LOAD, READONLY, DATA
  1 .text         00000bc0  080001f0  080001f0  000011f0  2**2
                  CONTENTS, ALLOC, LOAD, READONLY, CODE
  2 .rodata       00000024  08000db0  08000db0  00001db0  2**2
                  CONTENTS, ALLOC, LOAD, READONLY, DATA
  3 .ARM.extab    00000000  08000dd4  08000dd4  00001de4  2**0
                  CONTENTS, READONLY
  4 .ARM          00000008  08000dd4  08000dd4  00001dd4  2**2
                  CONTENTS, ALLOC, LOAD, READONLY, DATA
  5 .preinit_array 00000000  08000ddc  08000de4  00001de4  2**0
                  CONTENTS, ALLOC, LOAD, DATA
  6 .init_array   00000004  08000ddc  08000ddc  00001ddc  2**2
                  CONTENTS, ALLOC, LOAD, READONLY, DATA
  7 .fini_array   00000004  08000de0  08000de0  00001de0  2**2
                  CONTENTS, ALLOC, LOAD, READONLY, DATA
  8 .data         00000000  20000000  20000000  00001de4  2**0
                  CONTENTS, ALLOC, LOAD, DATA
  9 .bss          00000378  20000000  08000de4  00002000  2**2
                  ALLOC
 10 ._user_heap_stack 00000600  20000378  08000de4  00002378  2**0
                  ALLOC
 11 .ARM.attributes 00000036  00000000  00000000  00001de4  2**0
                  CONTENTS, READONLY
 12 .debug_info   00000942  00000000  00000000  00001e1a  2**0
                  CONTENTS, READONLY, DEBUGGING, OCTETS
 13 .debug_abbrev 00000272  00000000  00000000  0000275c  2**0
                  CONTENTS, READONLY, DEBUGGING, OCTETS
 14 .debug_aranges 00000108  00000000  00000000  000029d0  2**3
                  CONTENTS, READONLY, DEBUGGING, OCTETS
 15 .debug_rnglists 000000d0  00000000  00000000  00002ad8  2**0
                  CONTENTS, READONLY, DEBUGGING, OCTETS
 16 .debug_macro  00001d2a  00000000  00000000  00002ba8  2**0
                  CONTENTS, READONLY, DEBUGGING, OCTETS
 17 .debug_line   00000c61  00000000  00000000  000048d2  2**0
                  CONTENTS, READONLY, DEBUGGING, OCTETS
 18 .debug_str    00008307  00000000  00000000  00005533  2**0
                  CONTENTS, READONLY, DEBUGGING, OCTETS
 19 .comment      00000043  00000000  00000000  0000d83a  2**0
                  CONTENTS, READONLY
 20 .debug_frame  000003a8  00000000  00000000  0000d880  2**2
                  CONTENTS, READONLY, DEBUGGING, OCTETS
 21 .debug_line_str 00000066  00000000  00000000  0000dc28  2**0
                  CONTENTS, READONLY, DEBUGGING, OCTETS

Disassembly of section .text:

080001f0 <__do_global_dtors_aux>:
 80001f0:	b510      	push	{r4, lr}
 80001f2:	4c05      	ldr	r4, [pc, #20]	@ (8000208 <__do_global_dtors_aux+0x18>)
 80001f4:	7823      	ldrb	r3, [r4, #0]
 80001f6:	b933      	cbnz	r3, 8000206 <__do_global_dtors_aux+0x16>
 80001f8:	4b04      	ldr	r3, [pc, #16]	@ (800020c <__do_global_dtors_aux+0x1c>)
 80001fa:	b113      	cbz	r3, 8000202 <__do_global_dtors_aux+0x12>
 80001fc:	4804      	ldr	r0, [pc, #16]	@ (8000210 <__do_global_dtors_aux+0x20>)
 80001fe:	f3af 8000 	nop.w
 8000202:	2301      	movs	r3, #1
 8000204:	7023      	strb	r3, [r4, #0]
 8000206:	bd10      	pop	{r4, pc}
 8000208:	20000000 	.word	0x20000000
 800020c:	00000000 	.word	0x00000000
 8000210:	08000d98 	.word	0x08000d98

08000214 <frame_dummy>:
 8000214:	b508      	push	{r3, lr}
 8000216:	4b03      	ldr	r3, [pc, #12]	@ (8000224 <frame_dummy+0x10>)
 8000218:	b11b      	cbz	r3, 8000222 <frame_dummy+0xe>
 800021a:	4903      	ldr	r1, [pc, #12]	@ (8000228 <frame_dummy+0x14>)
 800021c:	4803      	ldr	r0, [pc, #12]	@ (800022c <frame_dummy+0x18>)
 800021e:	f3af 8000 	nop.w
 8000222:	bd08      	pop	{r3, pc}
 8000224:	00000000 	.word	0x00000000
 8000228:	20000004 	.word	0x20000004
 800022c:	08000d98 	.word	0x08000d98

08000230 <strcmp>:
 8000230:	f810 2b01 	ldrb.w	r2, [r0], #1
 8000234:	f811 3b01 	ldrb.w	r3, [r1], #1
 8000238:	2a01      	cmp	r2, #1
 800023a:	bf28      	it	cs
 800023c:	429a      	cmpcs	r2, r3
 800023e:	d0f7      	beq.n	8000230 <strcmp>
 8000240:	1ad0      	subs	r0, r2, r3
 8000242:	4770      	bx	lr

08000244 <init_TIM6_for_1ms>:
  * @brief PI 1: Initializes TIM6 to generate an overflow event every 1ms.
  * Assumes a 4MHz default MSI clock.
  * (4,000,000 Hz / (PSC+1)) / (ARR+1) = 1000 Hz (1ms)
  * (4,000,000 / 40) / 100 = 1000
  */
 void init_TIM6_for_1ms(void) {
 8000244:	b480      	push	{r7}
 8000246:	af00      	add	r7, sp, #0
     RCC_APB1ENR1 |= RCC_APB1ENR1_TIM6EN; // Enable TIM6 clock
 8000248:	4b0e      	ldr	r3, [pc, #56]	@ (8000284 <init_TIM6_for_1ms+0x40>)
 800024a:	681b      	ldr	r3, [r3, #0]
 800024c:	4a0d      	ldr	r2, [pc, #52]	@ (8000284 <init_TIM6_for_1ms+0x40>)
 800024e:	f043 0310 	orr.w	r3, r3, #16
 8000252:	6013      	str	r3, [r2, #0]
     TIM6_PSC = 39;            // Set Prescaler to 39 (divides clock by 40)
 8000254:	4b0c      	ldr	r3, [pc, #48]	@ (8000288 <init_TIM6_for_1ms+0x44>)
 8000256:	2227      	movs	r2, #39	@ 0x27
 8000258:	601a      	str	r2, [r3, #0]
     TIM6_ARR = 99;            // Set Auto-Reload to 99 (counts 100 ticks)
 800025a:	4b0c      	ldr	r3, [pc, #48]	@ (800028c <init_TIM6_for_1ms+0x48>)
 800025c:	2263      	movs	r2, #99	@ 0x63
 800025e:	601a      	str	r2, [r3, #0]
     TIM6_CR1 &= ~(1 << 1);    // Enable Update Event (UDIS=0)
 8000260:	4b0b      	ldr	r3, [pc, #44]	@ (8000290 <init_TIM6_for_1ms+0x4c>)
 8000262:	681b      	ldr	r3, [r3, #0]
 8000264:	4a0a      	ldr	r2, [pc, #40]	@ (8000290 <init_TIM6_for_1ms+0x4c>)
 8000266:	f023 0302 	bic.w	r3, r3, #2
 800026a:	6013      	str	r3, [r2, #0]
     TIM6_CR1 |= (1 << 0);     // Enable Counter (CEN=1)
 800026c:	4b08      	ldr	r3, [pc, #32]	@ (8000290 <init_TIM6_for_1ms+0x4c>)
 800026e:	681b      	ldr	r3, [r3, #0]
 8000270:	4a07      	ldr	r2, [pc, #28]	@ (8000290 <init_TIM6_for_1ms+0x4c>)
 8000272:	f043 0301 	orr.w	r3, r3, #1
 8000276:	6013      	str	r3, [r2, #0]
 }
 8000278:	bf00      	nop
 800027a:	46bd      	mov	sp, r7
 800027c:	f85d 7b04 	ldr.w	r7, [sp], #4
 8000280:	4770      	bx	lr
 8000282:	bf00      	nop
 8000284:	40021058 	.word	0x40021058
 8000288:	40001028 	.word	0x40001028
 800028c:	4000102c 	.word	0x4000102c
 8000290:	40001000 	.word	0x40001000

08000294 <init_PI2_Timer>:
/**
 * @brief PI 2: Initializes TIM15 for Input Capture (IC).
 * Configures vibration sensor monitoring with interrupt-driven timestamping.
 * This timer is STARTED for Input Capture.
 */
void init_PI2_Timer(void) {
 8000294:	b480      	push	{r7}
 8000296:	af00      	add	r7, sp, #0
    // 1. Enable TIM15 clock (Advanced Timer)
    RCC_APB2ENR |= RCC_APB2ENR_TIM15EN;
 8000298:	4b2d      	ldr	r3, [pc, #180]	@ (8000350 <init_PI2_Timer+0xbc>)
 800029a:	681b      	ldr	r3, [r3, #0]
 800029c:	4a2c      	ldr	r2, [pc, #176]	@ (8000350 <init_PI2_Timer+0xbc>)
 800029e:	f443 3380 	orr.w	r3, r3, #65536	@ 0x10000
 80002a2:	6013      	str	r3, [r2, #0]

    // 2. Configure TIM15 for Input Capture
    // Set prescaler for good resolution (4MHz / 4000 = 1kHz = 1ms resolution)
    TIM15->PSC = 3999;      // Prescaler: divide by 4000
 80002a4:	4b2b      	ldr	r3, [pc, #172]	@ (8000354 <init_PI2_Timer+0xc0>)
 80002a6:	f640 729f 	movw	r2, #3999	@ 0xf9f
 80002aa:	629a      	str	r2, [r3, #40]	@ 0x28
    TIM15->ARR = 1999;      // 1 second period for overflow reset
 80002ac:	4b29      	ldr	r3, [pc, #164]	@ (8000354 <init_PI2_Timer+0xc0>)
 80002ae:	f240 72cf 	movw	r2, #1999	@ 0x7cf
 80002b2:	62da      	str	r2, [r3, #44]	@ 0x2c

    //
    TIM15->CCR2 = 999;
 80002b4:	4b27      	ldr	r3, [pc, #156]	@ (8000354 <init_PI2_Timer+0xc0>)
 80002b6:	f240 32e7 	movw	r2, #999	@ 0x3e7
 80002ba:	639a      	str	r2, [r3, #56]	@ 0x38

    // 3. Configure Channel 1 for Input Capture
    // CC1S = 01 (IC1 mapped to TI1)
    TIM15->CCMR1 &= ~(0b11 << 0);    // Clear CC1S bits
 80002bc:	4b25      	ldr	r3, [pc, #148]	@ (8000354 <init_PI2_Timer+0xc0>)
 80002be:	699b      	ldr	r3, [r3, #24]
 80002c0:	4a24      	ldr	r2, [pc, #144]	@ (8000354 <init_PI2_Timer+0xc0>)
 80002c2:	f023 0303 	bic.w	r3, r3, #3
 80002c6:	6193      	str	r3, [r2, #24]
    TIM15->CCMR1 |= (0b01 << 0);     // CC1S = 01 (input capture)
 80002c8:	4b22      	ldr	r3, [pc, #136]	@ (8000354 <init_PI2_Timer+0xc0>)
 80002ca:	699b      	ldr	r3, [r3, #24]
 80002cc:	4a21      	ldr	r2, [pc, #132]	@ (8000354 <init_PI2_Timer+0xc0>)
 80002ce:	f043 0301 	orr.w	r3, r3, #1
 80002d2:	6193      	str	r3, [r2, #24]

    // 4. Configure capture on both edges for maximum sensitivity
    TIM15->CCER &= ~(0b1111 << 0);   // Clear all CC1 bits
 80002d4:	4b1f      	ldr	r3, [pc, #124]	@ (8000354 <init_PI2_Timer+0xc0>)
 80002d6:	6a1b      	ldr	r3, [r3, #32]
 80002d8:	4a1e      	ldr	r2, [pc, #120]	@ (8000354 <init_PI2_Timer+0xc0>)
 80002da:	f023 030f 	bic.w	r3, r3, #15
 80002de:	6213      	str	r3, [r2, #32]
    TIM15->CCER |= (1 << 0);         // CC1E = 1 (enable capture)
 80002e0:	4b1c      	ldr	r3, [pc, #112]	@ (8000354 <init_PI2_Timer+0xc0>)
 80002e2:	6a1b      	ldr	r3, [r3, #32]
 80002e4:	4a1b      	ldr	r2, [pc, #108]	@ (8000354 <init_PI2_Timer+0xc0>)
 80002e6:	f043 0301 	orr.w	r3, r3, #1
 80002ea:	6213      	str	r3, [r2, #32]
    TIM15->CCER |= (1 << 1);         // CC1P = 1 (falling edge)
 80002ec:	4b19      	ldr	r3, [pc, #100]	@ (8000354 <init_PI2_Timer+0xc0>)
 80002ee:	6a1b      	ldr	r3, [r3, #32]
 80002f0:	4a18      	ldr	r2, [pc, #96]	@ (8000354 <init_PI2_Timer+0xc0>)
 80002f2:	f043 0302 	orr.w	r3, r3, #2
 80002f6:	6213      	str	r3, [r2, #32]
    TIM15->CCER |= (1 << 3);         // CC1NP = 1 (both edges when combined with CC1P)
 80002f8:	4b16      	ldr	r3, [pc, #88]	@ (8000354 <init_PI2_Timer+0xc0>)
 80002fa:	6a1b      	ldr	r3, [r3, #32]
 80002fc:	4a15      	ldr	r2, [pc, #84]	@ (8000354 <init_PI2_Timer+0xc0>)
 80002fe:	f043 0308 	orr.w	r3, r3, #8
 8000302:	6213      	str	r3, [r2, #32]

    // 5. Enable capture and overflow interrupts
    TIM15->DIER |= (1 << 1);         // CC1IE = 1 (capture interrupt)
 8000304:	4b13      	ldr	r3, [pc, #76]	@ (8000354 <init_PI2_Timer+0xc0>)
 8000306:	68db      	ldr	r3, [r3, #12]
 8000308:	4a12      	ldr	r2, [pc, #72]	@ (8000354 <init_PI2_Timer+0xc0>)
 800030a:	f043 0302 	orr.w	r3, r3, #2
 800030e:	60d3      	str	r3, [r2, #12]
    TIM15->DIER |= (1 << 0);         // UIE = 1 (update interrupt for overflow)
 8000310:	4b10      	ldr	r3, [pc, #64]	@ (8000354 <init_PI2_Timer+0xc0>)
 8000312:	68db      	ldr	r3, [r3, #12]
 8000314:	4a0f      	ldr	r2, [pc, #60]	@ (8000354 <init_PI2_Timer+0xc0>)
 8000316:	f043 0301 	orr.w	r3, r3, #1
 800031a:	60d3      	str	r3, [r2, #12]

    TIM15->DIER |= (1 << 2);     // CC2IE = 1 for frequency toggle
 800031c:	4b0d      	ldr	r3, [pc, #52]	@ (8000354 <init_PI2_Timer+0xc0>)
 800031e:	68db      	ldr	r3, [r3, #12]
 8000320:	4a0c      	ldr	r2, [pc, #48]	@ (8000354 <init_PI2_Timer+0xc0>)
 8000322:	f043 0304 	orr.w	r3, r3, #4
 8000326:	60d3      	str	r3, [r2, #12]

    // 6. Clear all status flags
    TIM15->SR = 0;
 8000328:	4b0a      	ldr	r3, [pc, #40]	@ (8000354 <init_PI2_Timer+0xc0>)
 800032a:	2200      	movs	r2, #0
 800032c:	611a      	str	r2, [r3, #16]

    // 7. Enable TIM15 interrupt in NVIC (IRQ 37, bit 5 in ISER2)
    ISER2 |= (1 << TIM15_IRQn);
 800032e:	4b0a      	ldr	r3, [pc, #40]	@ (8000358 <init_PI2_Timer+0xc4>)
 8000330:	681b      	ldr	r3, [r3, #0]
 8000332:	4a09      	ldr	r2, [pc, #36]	@ (8000358 <init_PI2_Timer+0xc4>)
 8000334:	f043 0320 	orr.w	r3, r3, #32
 8000338:	6013      	str	r3, [r2, #0]

    // 8. Start the timer for Input Capture
    TIM15->CR1 |= (1 << 0);          // CEN = 1 (enable counter)
 800033a:	4b06      	ldr	r3, [pc, #24]	@ (8000354 <init_PI2_Timer+0xc0>)
 800033c:	681b      	ldr	r3, [r3, #0]
 800033e:	4a05      	ldr	r2, [pc, #20]	@ (8000354 <init_PI2_Timer+0xc0>)
 8000340:	f043 0301 	orr.w	r3, r3, #1
 8000344:	6013      	str	r3, [r2, #0]
}
 8000346:	bf00      	nop
 8000348:	46bd      	mov	sp, r7
 800034a:	f85d 7b04 	ldr.w	r7, [sp], #4
 800034e:	4770      	bx	lr
 8000350:	40021060 	.word	0x40021060
 8000354:	40014000 	.word	0x40014000
 8000358:	e000e108 	.word	0xe000e108

0800035c <init_PI3_Timer>:
/**
 * @brief PI 1: Initializes TIM7 for PI 3 (ADC Sampling Trigger).
 * Enables the clock and sets values for ACCELEROMETER_READ_INTERVAL_MS.
 * This timer is NOT STARTED (CEN=0).
 */
void init_PI3_Timer(void) {
 800035c:	b480      	push	{r7}
 800035e:	af00      	add	r7, sp, #0
    // 1. Enable TIM7 clock (Basic Timer)
    RCC_APB1ENR1 |= RCC_APB1ENR1_TIM7EN;
 8000360:	4b0b      	ldr	r3, [pc, #44]	@ (8000390 <init_PI3_Timer+0x34>)
 8000362:	681b      	ldr	r3, [r3, #0]
 8000364:	4a0a      	ldr	r2, [pc, #40]	@ (8000390 <init_PI3_Timer+0x34>)
 8000366:	f043 0320 	orr.w	r3, r3, #32
 800036a:	6013      	str	r3, [r2, #0]
    // 2. Set PSC/ARR for 200ms (ACCELEROMETER_READ_INTERVAL_MS)
    // 0.2s = (PSC+1) * (ARR+1) / 4,000,000 Hz
    // (PSC+1) * (ARR+1) = 800,000
    // Let PSC = 3999 (div by 4000), ARR = 199 (count 200)
    // (3999+1) * (199+1) = 4000 * 200 = 800,000. Correct.
    TIM7_PSC = 3999;
 800036c:	4b09      	ldr	r3, [pc, #36]	@ (8000394 <init_PI3_Timer+0x38>)
 800036e:	f640 729f 	movw	r2, #3999	@ 0xf9f
 8000372:	601a      	str	r2, [r3, #0]
    TIM7_ARR = 199;
 8000374:	4b08      	ldr	r3, [pc, #32]	@ (8000398 <init_PI3_Timer+0x3c>)
 8000376:	22c7      	movs	r2, #199	@ 0xc7
 8000378:	601a      	str	r2, [r3, #0]

    // 3. Ensure Update Event is enabled (UDIS=0)
    TIM7_CR1 &= ~(1 << 1);
 800037a:	4b08      	ldr	r3, [pc, #32]	@ (800039c <init_PI3_Timer+0x40>)
 800037c:	681b      	ldr	r3, [r3, #0]
 800037e:	4a07      	ldr	r2, [pc, #28]	@ (800039c <init_PI3_Timer+0x40>)
 8000380:	f023 0302 	bic.w	r3, r3, #2
 8000384:	6013      	str	r3, [r2, #0]

    // 4. DO NOT START THE TIMER (CEN remains 0).
    // PI 3 will enable this (or link it to ADC) when ready.
}
 8000386:	bf00      	nop
 8000388:	46bd      	mov	sp, r7
 800038a:	f85d 7b04 	ldr.w	r7, [sp], #4
 800038e:	4770      	bx	lr
 8000390:	40021058 	.word	0x40021058
 8000394:	40001428 	.word	0x40001428
 8000398:	4000142c 	.word	0x4000142c
 800039c:	40001400 	.word	0x40001400

080003a0 <init_buzzer_timer>:

/**
 * @brief PI 2: Initializes TIM16 for buzzer PWM output.
 * Configures TIM16_CH1 for PWM generation at 1kHz frequency.
 */
void init_buzzer_timer(void) {
 80003a0:	b480      	push	{r7}
 80003a2:	af00      	add	r7, sp, #0
    // 1. Enable TIM16 clock (Advanced Timer)
    RCC_APB2ENR |= RCC_APB2ENR_TIM16EN;
 80003a4:	4b1c      	ldr	r3, [pc, #112]	@ (8000418 <init_buzzer_timer+0x78>)
 80003a6:	681b      	ldr	r3, [r3, #0]
 80003a8:	4a1b      	ldr	r2, [pc, #108]	@ (8000418 <init_buzzer_timer+0x78>)
 80003aa:	f443 3300 	orr.w	r3, r3, #131072	@ 0x20000
 80003ae:	6013      	str	r3, [r2, #0]

    // 2. Configure TIM16 for 1kHz PWM (audible buzzer frequency)
    // 4MHz / (PSC+1) / (ARR+1) = 1kHz
    // 4MHz / 4 / 1000 = 1kHz
    TIM16->PSC = 3;     // Prescaler: divide by 4 (1MHz timer frequency)
 80003b0:	4b1a      	ldr	r3, [pc, #104]	@ (800041c <init_buzzer_timer+0x7c>)
 80003b2:	2203      	movs	r2, #3
 80003b4:	629a      	str	r2, [r3, #40]	@ 0x28
    TIM16->ARR = 999;   // Auto-reload: 1000 counts (1kHz PWM frequency)
 80003b6:	4b19      	ldr	r3, [pc, #100]	@ (800041c <init_buzzer_timer+0x7c>)
 80003b8:	f240 32e7 	movw	r2, #999	@ 0x3e7
 80003bc:	62da      	str	r2, [r3, #44]	@ 0x2c

    // 3. Configure Channel 1 for PWM Mode 1
    TIM16->CCMR1 &= ~(0b11 << 0);   // Clear CC1S (output mode)
 80003be:	4b17      	ldr	r3, [pc, #92]	@ (800041c <init_buzzer_timer+0x7c>)
 80003c0:	699b      	ldr	r3, [r3, #24]
 80003c2:	4a16      	ldr	r2, [pc, #88]	@ (800041c <init_buzzer_timer+0x7c>)
 80003c4:	f023 0303 	bic.w	r3, r3, #3
 80003c8:	6193      	str	r3, [r2, #24]
    TIM16->CCMR1 |= (0b110 << 4);   // PWM mode 1 (OC1M = 110)
 80003ca:	4b14      	ldr	r3, [pc, #80]	@ (800041c <init_buzzer_timer+0x7c>)
 80003cc:	699b      	ldr	r3, [r3, #24]
 80003ce:	4a13      	ldr	r2, [pc, #76]	@ (800041c <init_buzzer_timer+0x7c>)
 80003d0:	f043 0360 	orr.w	r3, r3, #96	@ 0x60
 80003d4:	6193      	str	r3, [r2, #24]

    // 4. Set 50% duty cycle for buzzer tone
    TIM16->CCR1 = 500;  // 50% duty cycle (500/1000)
 80003d6:	4b11      	ldr	r3, [pc, #68]	@ (800041c <init_buzzer_timer+0x7c>)
 80003d8:	f44f 72fa 	mov.w	r2, #500	@ 0x1f4
 80003dc:	635a      	str	r2, [r3, #52]	@ 0x34

    // 5. Configure output polarity (active high)
    TIM16->CCER &= ~(1 << 1);       // CC1P = 0 (active high)
 80003de:	4b0f      	ldr	r3, [pc, #60]	@ (800041c <init_buzzer_timer+0x7c>)
 80003e0:	6a1b      	ldr	r3, [r3, #32]
 80003e2:	4a0e      	ldr	r2, [pc, #56]	@ (800041c <init_buzzer_timer+0x7c>)
 80003e4:	f023 0302 	bic.w	r3, r3, #2
 80003e8:	6213      	str	r3, [r2, #32]

    // 6. Enable main output (required for advanced timers)
    TIM16->BDTR |= (1 << 15);       // MOE = 1 (Main Output Enable)
 80003ea:	4b0c      	ldr	r3, [pc, #48]	@ (800041c <init_buzzer_timer+0x7c>)
 80003ec:	6c5b      	ldr	r3, [r3, #68]	@ 0x44
 80003ee:	4a0b      	ldr	r2, [pc, #44]	@ (800041c <init_buzzer_timer+0x7c>)
 80003f0:	f443 4300 	orr.w	r3, r3, #32768	@ 0x8000
 80003f4:	6453      	str	r3, [r2, #68]	@ 0x44

    // 7. Channel 1 output is initially disabled (buzzer off)
    TIM16->CCER &= ~(1 << 0);       // CC1E = 0 (disable output)
 80003f6:	4b09      	ldr	r3, [pc, #36]	@ (800041c <init_buzzer_timer+0x7c>)
 80003f8:	6a1b      	ldr	r3, [r3, #32]
 80003fa:	4a08      	ldr	r2, [pc, #32]	@ (800041c <init_buzzer_timer+0x7c>)
 80003fc:	f023 0301 	bic.w	r3, r3, #1
 8000400:	6213      	str	r3, [r2, #32]

    // 8. Start the timer (but output is disabled)
    TIM16->CR1 |= (1 << 0);         // CEN = 1 (enable counter)
 8000402:	4b06      	ldr	r3, [pc, #24]	@ (800041c <init_buzzer_timer+0x7c>)
 8000404:	681b      	ldr	r3, [r3, #0]
 8000406:	4a05      	ldr	r2, [pc, #20]	@ (800041c <init_buzzer_timer+0x7c>)
 8000408:	f043 0301 	orr.w	r3, r3, #1
 800040c:	6013      	str	r3, [r2, #0]
}
 800040e:	bf00      	nop
 8000410:	46bd      	mov	sp, r7
 8000412:	f85d 7b04 	ldr.w	r7, [sp], #4
 8000416:	4770      	bx	lr
 8000418:	40021060 	.word	0x40021060
 800041c:	40014400 	.word	0x40014400

08000420 <init_buzzer_gpio>:

// PI 2: Initializes the buzzer on PA6 for TIM16_CH1 PWM Output
void init_buzzer_gpio(void) {
 8000420:	b480      	push	{r7}
 8000422:	af00      	add	r7, sp, #0
    // PA6 clock is already enabled in init_rgb_led() (GPIOA clock)

    // Configure PA6 as alternate function for TIM16_CH1
    GPIOA_MODER &= ~(3 << (6*2));  // Clear mode bits for PA6
 8000424:	4b0e      	ldr	r3, [pc, #56]	@ (8000460 <init_buzzer_gpio+0x40>)
 8000426:	681b      	ldr	r3, [r3, #0]
 8000428:	4a0d      	ldr	r2, [pc, #52]	@ (8000460 <init_buzzer_gpio+0x40>)
 800042a:	f423 5340 	bic.w	r3, r3, #12288	@ 0x3000
 800042e:	6013      	str	r3, [r2, #0]
    GPIOA_MODER |= (2 << (6*2));   // Set PA6 to alternate function mode (10)
 8000430:	4b0b      	ldr	r3, [pc, #44]	@ (8000460 <init_buzzer_gpio+0x40>)
 8000432:	681b      	ldr	r3, [r3, #0]
 8000434:	4a0a      	ldr	r2, [pc, #40]	@ (8000460 <init_buzzer_gpio+0x40>)
 8000436:	f443 5300 	orr.w	r3, r3, #8192	@ 0x2000
 800043a:	6013      	str	r3, [r2, #0]

    // Set PA6 alternate function to TIM16 (AF14)
    // GPIOA_AFRL for pins 0-7, PA6 uses bits 24-27
    GPIOA_AFRL &= ~(0xF << (6*4));  // Clear AF bits for PA6
 800043c:	4b09      	ldr	r3, [pc, #36]	@ (8000464 <init_buzzer_gpio+0x44>)
 800043e:	681b      	ldr	r3, [r3, #0]
 8000440:	4a08      	ldr	r2, [pc, #32]	@ (8000464 <init_buzzer_gpio+0x44>)
 8000442:	f023 6370 	bic.w	r3, r3, #251658240	@ 0xf000000
 8000446:	6013      	str	r3, [r2, #0]
    GPIOA_AFRL |= (0xE << (6*4));   // Set AF14 for TIM16
 8000448:	4b06      	ldr	r3, [pc, #24]	@ (8000464 <init_buzzer_gpio+0x44>)
 800044a:	681b      	ldr	r3, [r3, #0]
 800044c:	4a05      	ldr	r2, [pc, #20]	@ (8000464 <init_buzzer_gpio+0x44>)
 800044e:	f043 6360 	orr.w	r3, r3, #234881024	@ 0xe000000
 8000452:	6013      	str	r3, [r2, #0]

}
 8000454:	bf00      	nop
 8000456:	46bd      	mov	sp, r7
 8000458:	f85d 7b04 	ldr.w	r7, [sp], #4
 800045c:	4770      	bx	lr
 800045e:	bf00      	nop
 8000460:	42020000 	.word	0x42020000
 8000464:	42020020 	.word	0x42020020

08000468 <init_keypad>:
 /**
  * @brief PI 1: Initializes GPIOF for the 4x3 Keypad.
  * - Cols (PF0, PF1, PF2) as Output
  * - Rows (PF3, PF5, PF13, PF14) as Input with Pull-up
  */
 void init_keypad(void) {
 8000468:	b480      	push	{r7}
 800046a:	af00      	add	r7, sp, #0
     RCC_AHB2ENR |= (1 << 5); // Enable GPIOF clock
 800046c:	4b1a      	ldr	r3, [pc, #104]	@ (80004d8 <init_keypad+0x70>)
 800046e:	681b      	ldr	r3, [r3, #0]
 8000470:	4a19      	ldr	r2, [pc, #100]	@ (80004d8 <init_keypad+0x70>)
 8000472:	f043 0320 	orr.w	r3, r3, #32
 8000476:	6013      	str	r3, [r2, #0]

     // 1. Set Keypad Column Pins (PF0, PF1, PF2) to Output ('01')
     GPIOF_MODER &= ~( (3 << (0*2)) | (3 << (1*2)) | (3 << (2*2)) );
 8000478:	4b18      	ldr	r3, [pc, #96]	@ (80004dc <init_keypad+0x74>)
 800047a:	681b      	ldr	r3, [r3, #0]
 800047c:	4a17      	ldr	r2, [pc, #92]	@ (80004dc <init_keypad+0x74>)
 800047e:	f023 033f 	bic.w	r3, r3, #63	@ 0x3f
 8000482:	6013      	str	r3, [r2, #0]
     GPIOF_MODER |=  ( (1 << (0*2)) | (1 << (1*2)) | (1 << (2*2)) );
 8000484:	4b15      	ldr	r3, [pc, #84]	@ (80004dc <init_keypad+0x74>)
 8000486:	681b      	ldr	r3, [r3, #0]
 8000488:	4a14      	ldr	r2, [pc, #80]	@ (80004dc <init_keypad+0x74>)
 800048a:	f043 0315 	orr.w	r3, r3, #21
 800048e:	6013      	str	r3, [r2, #0]

     // 2. Set Keypad Row Pins (PF3, PF5, PF13, PF14) to Input ('00')
     GPIOF_MODER &= ~( (3 << (3*2)) | (3 << (5*2)) | (3 << (13*2)) | (3 << (14*2)) );
 8000490:	4b12      	ldr	r3, [pc, #72]	@ (80004dc <init_keypad+0x74>)
 8000492:	681b      	ldr	r3, [r3, #0]
 8000494:	4a11      	ldr	r2, [pc, #68]	@ (80004dc <init_keypad+0x74>)
 8000496:	f023 5370 	bic.w	r3, r3, #1006632960	@ 0x3c000000
 800049a:	f423 634c 	bic.w	r3, r3, #3264	@ 0xcc0
 800049e:	6013      	str	r3, [r2, #0]

     // 3. Enable Internal Pull-Up Resistors for Row Pins ('01')
     GPIOF_PUPDR &= ~( (3 << (3*2)) | (3 << (5*2)) | (3 << (13*2)) | (3 << (14*2)) );
 80004a0:	4b0f      	ldr	r3, [pc, #60]	@ (80004e0 <init_keypad+0x78>)
 80004a2:	681b      	ldr	r3, [r3, #0]
 80004a4:	4a0e      	ldr	r2, [pc, #56]	@ (80004e0 <init_keypad+0x78>)
 80004a6:	f023 5370 	bic.w	r3, r3, #1006632960	@ 0x3c000000
 80004aa:	f423 634c 	bic.w	r3, r3, #3264	@ 0xcc0
 80004ae:	6013      	str	r3, [r2, #0]
     GPIOF_PUPDR |=  ( (1 << (3*2)) | (1 << (5*2)) | (1 << (13*2)) | (1 << (14*2)) );
 80004b0:	4b0b      	ldr	r3, [pc, #44]	@ (80004e0 <init_keypad+0x78>)
 80004b2:	681b      	ldr	r3, [r3, #0]
 80004b4:	4a0a      	ldr	r2, [pc, #40]	@ (80004e0 <init_keypad+0x78>)
 80004b6:	f043 53a0 	orr.w	r3, r3, #335544320	@ 0x14000000
 80004ba:	f443 6388 	orr.w	r3, r3, #1088	@ 0x440
 80004be:	6013      	str	r3, [r2, #0]

     // 4. Initialize keypad buffer
     g_keypad_buffer[0] = '\0';
 80004c0:	4b08      	ldr	r3, [pc, #32]	@ (80004e4 <init_keypad+0x7c>)
 80004c2:	2200      	movs	r2, #0
 80004c4:	701a      	strb	r2, [r3, #0]
     g_keypad_buffer_index = 0;
 80004c6:	4b08      	ldr	r3, [pc, #32]	@ (80004e8 <init_keypad+0x80>)
 80004c8:	2200      	movs	r2, #0
 80004ca:	601a      	str	r2, [r3, #0]
 }
 80004cc:	bf00      	nop
 80004ce:	46bd      	mov	sp, r7
 80004d0:	f85d 7b04 	ldr.w	r7, [sp], #4
 80004d4:	4770      	bx	lr
 80004d6:	bf00      	nop
 80004d8:	4002104c 	.word	0x4002104c
 80004dc:	42021400 	.word	0x42021400
 80004e0:	4202140c 	.word	0x4202140c
 80004e4:	20000020 	.word	0x20000020
 80004e8:	2000002c 	.word	0x2000002c

080004ec <init_rgb_led>:
 /**
  * @brief PI 1&2: Initializes GPIOA for the status LEDs.
  * - PA3 (Green), PA4 (Blue), PA5 (Red) as Output (PA2 used for vibration sensor)
  * - Sets initial state to OFF (Red ON, Green OFF, Blue OFF)
  */
 void init_rgb_led(void) {
 80004ec:	b480      	push	{r7}
 80004ee:	af00      	add	r7, sp, #0
     RCC_AHB2ENR |= (1 << 0); // Enable GPIOA clock
 80004f0:	4b14      	ldr	r3, [pc, #80]	@ (8000544 <init_rgb_led+0x58>)
 80004f2:	681b      	ldr	r3, [r3, #0]
 80004f4:	4a13      	ldr	r2, [pc, #76]	@ (8000544 <init_rgb_led+0x58>)
 80004f6:	f043 0301 	orr.w	r3, r3, #1
 80004fa:	6013      	str	r3, [r2, #0]

     // 1. Set LED Pins (PA3, PA4, PA5) to Output ('01') - PA2 used for TIM15
     GPIOA_MODER &= ~( (3 << (3*2)) | (3 << (4*2)) | (3 << (5*2)) ); // Clear modes for PA3, PA4, PA5
 80004fc:	4b12      	ldr	r3, [pc, #72]	@ (8000548 <init_rgb_led+0x5c>)
 80004fe:	681b      	ldr	r3, [r3, #0]
 8000500:	4a11      	ldr	r2, [pc, #68]	@ (8000548 <init_rgb_led+0x5c>)
 8000502:	f423 637c 	bic.w	r3, r3, #4032	@ 0xfc0
 8000506:	6013      	str	r3, [r2, #0]
     GPIOA_MODER |=  ( (1 << (3*2)) | (1 << (4*2)) | (1 << (5*2)) ); // Set PA3, PA4, PA5 to Output
 8000508:	4b0f      	ldr	r3, [pc, #60]	@ (8000548 <init_rgb_led+0x5c>)
 800050a:	681b      	ldr	r3, [r3, #0]
 800050c:	4a0e      	ldr	r2, [pc, #56]	@ (8000548 <init_rgb_led+0x5c>)
 800050e:	f443 63a8 	orr.w	r3, r3, #1344	@ 0x540
 8000512:	6013      	str	r3, [r2, #0]

     // 2. Set initial state: System OFF (Red ON, Green OFF, Blue OFF)
     // Assumes Active-LOW wiring (LOW = ON, HIGH = OFF)
     GPIOA_ODR &= ~(1 << 5); // PA5 (Red) LOW -> ON
 8000514:	4b0d      	ldr	r3, [pc, #52]	@ (800054c <init_rgb_led+0x60>)
 8000516:	681b      	ldr	r3, [r3, #0]
 8000518:	4a0c      	ldr	r2, [pc, #48]	@ (800054c <init_rgb_led+0x60>)
 800051a:	f023 0320 	bic.w	r3, r3, #32
 800051e:	6013      	str	r3, [r2, #0]
     GPIOA_ODR |=  (1 << 3); // PA3 (Green) HIGH -> OFF
 8000520:	4b0a      	ldr	r3, [pc, #40]	@ (800054c <init_rgb_led+0x60>)
 8000522:	681b      	ldr	r3, [r3, #0]
 8000524:	4a09      	ldr	r2, [pc, #36]	@ (800054c <init_rgb_led+0x60>)
 8000526:	f043 0308 	orr.w	r3, r3, #8
 800052a:	6013      	str	r3, [r2, #0]
     GPIOA_ODR |=  (1 << 4); // PA4 (Blue) HIGH -> OFF
 800052c:	4b07      	ldr	r3, [pc, #28]	@ (800054c <init_rgb_led+0x60>)
 800052e:	681b      	ldr	r3, [r3, #0]
 8000530:	4a06      	ldr	r2, [pc, #24]	@ (800054c <init_rgb_led+0x60>)
 8000532:	f043 0310 	orr.w	r3, r3, #16
 8000536:	6013      	str	r3, [r2, #0]
 }
 8000538:	bf00      	nop
 800053a:	46bd      	mov	sp, r7
 800053c:	f85d 7b04 	ldr.w	r7, [sp], #4
 8000540:	4770      	bx	lr
 8000542:	bf00      	nop
 8000544:	4002104c 	.word	0x4002104c
 8000548:	42020000 	.word	0x42020000
 800054c:	42020014 	.word	0x42020014

08000550 <init_accelerometer>:
 //=============================================================================
 // 4. IMPLEMENTATION & MOCK FUNCTIONS (PI 2 Complete, PI 3 Mock)
 //=============================================================================

 // MOCK (PI 3): Initializes the accelerometer sensor
 void init_accelerometer(void) {
 8000550:	b480      	push	{r7}
 8000552:	af00      	add	r7, sp, #0
 }
 8000554:	bf00      	nop
 8000556:	46bd      	mov	sp, r7
 8000558:	f85d 7b04 	ldr.w	r7, [sp], #4
 800055c:	4770      	bx	lr
	...

08000560 <init_vibration_sensor>:

 // PI 2: Initializes the vibration sensor on PA2 for TIM15_CH1 Input Capture
void init_vibration_sensor(void) {
 8000560:	b480      	push	{r7}
 8000562:	af00      	add	r7, sp, #0
    // PA2 clock is already enabled in init_rgb_led() (GPIOA clock)

    // Configure PA2 as alternate function for TIM15_CH1
    GPIOA_MODER &= ~(3 << (2*2));  // Clear mode bits for PA2
 8000564:	4b14      	ldr	r3, [pc, #80]	@ (80005b8 <init_vibration_sensor+0x58>)
 8000566:	681b      	ldr	r3, [r3, #0]
 8000568:	4a13      	ldr	r2, [pc, #76]	@ (80005b8 <init_vibration_sensor+0x58>)
 800056a:	f023 0330 	bic.w	r3, r3, #48	@ 0x30
 800056e:	6013      	str	r3, [r2, #0]
    GPIOA_MODER |= (2 << (2*2));   // Set PA2 to alternate function mode (10)
 8000570:	4b11      	ldr	r3, [pc, #68]	@ (80005b8 <init_vibration_sensor+0x58>)
 8000572:	681b      	ldr	r3, [r3, #0]
 8000574:	4a10      	ldr	r2, [pc, #64]	@ (80005b8 <init_vibration_sensor+0x58>)
 8000576:	f043 0320 	orr.w	r3, r3, #32
 800057a:	6013      	str	r3, [r2, #0]

    // Set PA2 alternate function to TIM15 (AF14)
    // GPIOA_AFRL for pins 0-7, PA2 uses bits 8-11
    GPIOA_AFRL &= ~(0xF << (2*4));  // Clear AF bits for PA2
 800057c:	4b0f      	ldr	r3, [pc, #60]	@ (80005bc <init_vibration_sensor+0x5c>)
 800057e:	681b      	ldr	r3, [r3, #0]
 8000580:	4a0e      	ldr	r2, [pc, #56]	@ (80005bc <init_vibration_sensor+0x5c>)
 8000582:	f423 6370 	bic.w	r3, r3, #3840	@ 0xf00
 8000586:	6013      	str	r3, [r2, #0]
    GPIOA_AFRL |= (0xE << (2*4));   // Set AF14 for TIM15
 8000588:	4b0c      	ldr	r3, [pc, #48]	@ (80005bc <init_vibration_sensor+0x5c>)
 800058a:	681b      	ldr	r3, [r3, #0]
 800058c:	4a0b      	ldr	r2, [pc, #44]	@ (80005bc <init_vibration_sensor+0x5c>)
 800058e:	f443 6360 	orr.w	r3, r3, #3584	@ 0xe00
 8000592:	6013      	str	r3, [r2, #0]

    // Enable pull-up resistor for PA2 to prevent floating input noise
    GPIOA_PUPDR &= ~(0b11 << (2 * 2));    // Clear pull bits
 8000594:	4b0a      	ldr	r3, [pc, #40]	@ (80005c0 <init_vibration_sensor+0x60>)
 8000596:	681b      	ldr	r3, [r3, #0]
 8000598:	4a09      	ldr	r2, [pc, #36]	@ (80005c0 <init_vibration_sensor+0x60>)
 800059a:	f023 0330 	bic.w	r3, r3, #48	@ 0x30
 800059e:	6013      	str	r3, [r2, #0]
    GPIOA_PUPDR |= (0b01 << (2 * 2));     // Enable pull-up resistor
 80005a0:	4b07      	ldr	r3, [pc, #28]	@ (80005c0 <init_vibration_sensor+0x60>)
 80005a2:	681b      	ldr	r3, [r3, #0]
 80005a4:	4a06      	ldr	r2, [pc, #24]	@ (80005c0 <init_vibration_sensor+0x60>)
 80005a6:	f043 0310 	orr.w	r3, r3, #16
 80005aa:	6013      	str	r3, [r2, #0]

}
 80005ac:	bf00      	nop
 80005ae:	46bd      	mov	sp, r7
 80005b0:	f85d 7b04 	ldr.w	r7, [sp], #4
 80005b4:	4770      	bx	lr
 80005b6:	bf00      	nop
 80005b8:	42020000 	.word	0x42020000
 80005bc:	42020020 	.word	0x42020020
 80005c0:	4202000c 	.word	0x4202000c

080005c4 <init_buzzer>:

 // PI 2: Initializes the buzzer hardware (GPIO + Timer)
 void init_buzzer(void) {
 80005c4:	b580      	push	{r7, lr}
 80005c6:	af00      	add	r7, sp, #0
     init_buzzer_gpio();   // Configure PA6 for TIM16_CH1
 80005c8:	f7ff ff2a 	bl	8000420 <init_buzzer_gpio>
     init_buzzer_timer();  // Configure TIM16 for PWM
 80005cc:	f7ff fee8 	bl	80003a0 <init_buzzer_timer>
 }
 80005d0:	bf00      	nop
 80005d2:	bd80      	pop	{r7, pc}

080005d4 <init_bluetooth_module>:

 // MOCK (PI 3): Initializes the Bluetooth module
 void init_bluetooth_module(void) {
 80005d4:	b480      	push	{r7}
 80005d6:	af00      	add	r7, sp, #0
 }
 80005d8:	bf00      	nop
 80005da:	46bd      	mov	sp, r7
 80005dc:	f85d 7b04 	ldr.w	r7, [sp], #4
 80005e0:	4770      	bx	lr
	...

080005e4 <read_accelerometer_adc>:

 // MOCK (PI 3): read the value from the accelerometer via ADC
 void read_accelerometer_adc(void) {
 80005e4:	b480      	push	{r7}
 80005e6:	af00      	add	r7, sp, #0
     // Will be implemented in PI 3 - ADC functionality
     g_raw_accel_data.x = 10;
 80005e8:	4b07      	ldr	r3, [pc, #28]	@ (8000608 <read_accelerometer_adc+0x24>)
 80005ea:	220a      	movs	r2, #10
 80005ec:	601a      	str	r2, [r3, #0]
     g_raw_accel_data.y = -5;
 80005ee:	4b06      	ldr	r3, [pc, #24]	@ (8000608 <read_accelerometer_adc+0x24>)
 80005f0:	f06f 0204 	mvn.w	r2, #4
 80005f4:	605a      	str	r2, [r3, #4]
     g_raw_accel_data.z = 15;
 80005f6:	4b04      	ldr	r3, [pc, #16]	@ (8000608 <read_accelerometer_adc+0x24>)
 80005f8:	220f      	movs	r2, #15
 80005fa:	609a      	str	r2, [r3, #8]
 }
 80005fc:	bf00      	nop
 80005fe:	46bd      	mov	sp, r7
 8000600:	f85d 7b04 	ldr.w	r7, [sp], #4
 8000604:	4770      	bx	lr
 8000606:	bf00      	nop
 8000608:	20000364 	.word	0x20000364

0800060c <set_buzzer_state>:

 // PI 2: Control buzzer PWM output
 void set_buzzer_state(bool activate) {
 800060c:	b480      	push	{r7}
 800060e:	b083      	sub	sp, #12
 8000610:	af00      	add	r7, sp, #0
 8000612:	4603      	mov	r3, r0
 8000614:	71fb      	strb	r3, [r7, #7]
     g_buzzer_active = activate;
 8000616:	4a0c      	ldr	r2, [pc, #48]	@ (8000648 <set_buzzer_state+0x3c>)
 8000618:	79fb      	ldrb	r3, [r7, #7]
 800061a:	7013      	strb	r3, [r2, #0]
     if (activate) {
 800061c:	79fb      	ldrb	r3, [r7, #7]
 800061e:	2b00      	cmp	r3, #0
 8000620:	d006      	beq.n	8000630 <set_buzzer_state+0x24>
         // Enable PWM output on TIM16_CH1
         TIM16->CCER |= (1 << 0);    // CC1E = 1 (enable output)
 8000622:	4b0a      	ldr	r3, [pc, #40]	@ (800064c <set_buzzer_state+0x40>)
 8000624:	6a1b      	ldr	r3, [r3, #32]
 8000626:	4a09      	ldr	r2, [pc, #36]	@ (800064c <set_buzzer_state+0x40>)
 8000628:	f043 0301 	orr.w	r3, r3, #1
 800062c:	6213      	str	r3, [r2, #32]
     } else {
         // Disable PWM output on TIM16_CH1
         TIM16->CCER &= ~(1 << 0);   // CC1E = 0 (disable output)
     }
 }
 800062e:	e005      	b.n	800063c <set_buzzer_state+0x30>
         TIM16->CCER &= ~(1 << 0);   // CC1E = 0 (disable output)
 8000630:	4b06      	ldr	r3, [pc, #24]	@ (800064c <set_buzzer_state+0x40>)
 8000632:	6a1b      	ldr	r3, [r3, #32]
 8000634:	4a05      	ldr	r2, [pc, #20]	@ (800064c <set_buzzer_state+0x40>)
 8000636:	f023 0301 	bic.w	r3, r3, #1
 800063a:	6213      	str	r3, [r2, #32]
 }
 800063c:	bf00      	nop
 800063e:	370c      	adds	r7, #12
 8000640:	46bd      	mov	sp, r7
 8000642:	f85d 7b04 	ldr.w	r7, [sp], #4
 8000646:	4770      	bx	lr
 8000648:	20000374 	.word	0x20000374
 800064c:	40014400 	.word	0x40014400

08000650 <check_bluetooth_commands>:

 // MOCK (PI 3): check for incoming commands from Bluetooth
 void check_bluetooth_commands(void) {
 8000650:	b480      	push	{r7}
 8000652:	af00      	add	r7, sp, #0
     // In a real implementation, this would parse serial data.
 }
 8000654:	bf00      	nop
 8000656:	46bd      	mov	sp, r7
 8000658:	f85d 7b04 	ldr.w	r7, [sp], #4
 800065c:	4770      	bx	lr
	...

08000660 <add_acceleration_to_window>:

 // MOCK (PI 3): Adds new raw acceleration data to the sliding window
 void add_acceleration_to_window(AccelerometerData accel_data) {
 8000660:	b480      	push	{r7}
 8000662:	b085      	sub	sp, #20
 8000664:	af00      	add	r7, sp, #0
 8000666:	1d3b      	adds	r3, r7, #4
 8000668:	e883 0007 	stmia.w	r3, {r0, r1, r2}
     g_acceleration_window_count++;
 800066c:	4b05      	ldr	r3, [pc, #20]	@ (8000684 <add_acceleration_to_window+0x24>)
 800066e:	681b      	ldr	r3, [r3, #0]
 8000670:	3301      	adds	r3, #1
 8000672:	4a04      	ldr	r2, [pc, #16]	@ (8000684 <add_acceleration_to_window+0x24>)
 8000674:	6013      	str	r3, [r2, #0]
 }
 8000676:	bf00      	nop
 8000678:	3714      	adds	r7, #20
 800067a:	46bd      	mov	sp, r7
 800067c:	f85d 7b04 	ldr.w	r7, [sp], #4
 8000680:	4770      	bx	lr
 8000682:	bf00      	nop
 8000684:	2000035c 	.word	0x2000035c

08000688 <compute_acceleration_pattern>:

 // MOCK (PI 3): Computes a pattern value from the raw acceleration window data
 float compute_acceleration_pattern(void) {
 8000688:	b480      	push	{r7}
 800068a:	af00      	add	r7, sp, #0
     return 1.0f; // Mock pattern value
 800068c:	f04f 537e 	mov.w	r3, #1065353216	@ 0x3f800000
 8000690:	ee07 3a90 	vmov	s15, r3
 }
 8000694:	eeb0 0a67 	vmov.f32	s0, s15
 8000698:	46bd      	mov	sp, r7
 800069a:	f85d 7b04 	ldr.w	r7, [sp], #4
 800069e:	4770      	bx	lr

080006a0 <compute_vibration_irregularity>:


 // PI 2: Timestamp-based sliding window vibration detection
 float compute_vibration_irregularity(void) {
 80006a0:	b480      	push	{r7}
 80006a2:	b087      	sub	sp, #28
 80006a4:	af00      	add	r7, sp, #0

    if (g_vibration_timestamp_count < VIBRATION_PULSE_THRESHOLD) {
 80006a6:	4b2b      	ldr	r3, [pc, #172]	@ (8000754 <compute_vibration_irregularity+0xb4>)
 80006a8:	681b      	ldr	r3, [r3, #0]
 80006aa:	2bb3      	cmp	r3, #179	@ 0xb3
 80006ac:	dc02      	bgt.n	80006b4 <compute_vibration_irregularity+0x14>
        return 0.0f;
 80006ae:	f04f 0300 	mov.w	r3, #0
 80006b2:	e046      	b.n	8000742 <compute_vibration_irregularity+0xa2>
    }
    // Most recent pulse timestamp
    uint32_t latest = g_vibration_timestamps[
        (g_vibration_timestamp_index - 1 + VIBRATION_INTERVAL_BUFFER_SIZE) %
 80006b4:	4b28      	ldr	r3, [pc, #160]	@ (8000758 <compute_vibration_irregularity+0xb8>)
 80006b6:	681b      	ldr	r3, [r3, #0]
 80006b8:	f103 02c7 	add.w	r2, r3, #199	@ 0xc7
 80006bc:	4b27      	ldr	r3, [pc, #156]	@ (800075c <compute_vibration_irregularity+0xbc>)
 80006be:	fb83 1302 	smull	r1, r3, r3, r2
 80006c2:	1199      	asrs	r1, r3, #6
 80006c4:	17d3      	asrs	r3, r2, #31
 80006c6:	1acb      	subs	r3, r1, r3
 80006c8:	21c8      	movs	r1, #200	@ 0xc8
 80006ca:	fb01 f303 	mul.w	r3, r1, r3
 80006ce:	1ad3      	subs	r3, r2, r3
    uint32_t latest = g_vibration_timestamps[
 80006d0:	4a23      	ldr	r2, [pc, #140]	@ (8000760 <compute_vibration_irregularity+0xc0>)
 80006d2:	f852 3023 	ldr.w	r3, [r2, r3, lsl #2]
 80006d6:	60fb      	str	r3, [r7, #12]
        VIBRATION_INTERVAL_BUFFER_SIZE
    ];

    int pulses = 0;
 80006d8:	2300      	movs	r3, #0
 80006da:	617b      	str	r3, [r7, #20]
    uint32_t window = VIBRATION_RESET_INTERVAL_S * 1000000; // Sliding window in µs
 80006dc:	4b21      	ldr	r3, [pc, #132]	@ (8000764 <compute_vibration_irregularity+0xc4>)
 80006de:	60bb      	str	r3, [r7, #8]

    // Count pulses within the window, going backward in the circular buffer
    for (int i = 0; i < VIBRATION_INTERVAL_BUFFER_SIZE; i++) {
 80006e0:	2300      	movs	r3, #0
 80006e2:	613b      	str	r3, [r7, #16]
 80006e4:	e020      	b.n	8000728 <compute_vibration_irregularity+0x88>

        uint32_t t = g_vibration_timestamps[
            (g_vibration_timestamp_index - 1 - i + VIBRATION_INTERVAL_BUFFER_SIZE) %
 80006e6:	4b1c      	ldr	r3, [pc, #112]	@ (8000758 <compute_vibration_irregularity+0xb8>)
 80006e8:	681b      	ldr	r3, [r3, #0]
 80006ea:	1e5a      	subs	r2, r3, #1
 80006ec:	693b      	ldr	r3, [r7, #16]
 80006ee:	1ad3      	subs	r3, r2, r3
 80006f0:	f103 02c8 	add.w	r2, r3, #200	@ 0xc8
 80006f4:	4b19      	ldr	r3, [pc, #100]	@ (800075c <compute_vibration_irregularity+0xbc>)
 80006f6:	fb83 1302 	smull	r1, r3, r3, r2
 80006fa:	1199      	asrs	r1, r3, #6
 80006fc:	17d3      	asrs	r3, r2, #31
 80006fe:	1acb      	subs	r3, r1, r3
 8000700:	21c8      	movs	r1, #200	@ 0xc8
 8000702:	fb01 f303 	mul.w	r3, r1, r3
 8000706:	1ad3      	subs	r3, r2, r3
        uint32_t t = g_vibration_timestamps[
 8000708:	4a15      	ldr	r2, [pc, #84]	@ (8000760 <compute_vibration_irregularity+0xc0>)
 800070a:	f852 3023 	ldr.w	r3, [r2, r3, lsl #2]
 800070e:	607b      	str	r3, [r7, #4]
            VIBRATION_INTERVAL_BUFFER_SIZE
        ];

        // Stop once timestamp is older than the window
        if (latest - t > window)
 8000710:	68fa      	ldr	r2, [r7, #12]
 8000712:	687b      	ldr	r3, [r7, #4]
 8000714:	1ad3      	subs	r3, r2, r3
 8000716:	68ba      	ldr	r2, [r7, #8]
 8000718:	429a      	cmp	r2, r3
 800071a:	d309      	bcc.n	8000730 <compute_vibration_irregularity+0x90>
            break;

        pulses++;
 800071c:	697b      	ldr	r3, [r7, #20]
 800071e:	3301      	adds	r3, #1
 8000720:	617b      	str	r3, [r7, #20]
    for (int i = 0; i < VIBRATION_INTERVAL_BUFFER_SIZE; i++) {
 8000722:	693b      	ldr	r3, [r7, #16]
 8000724:	3301      	adds	r3, #1
 8000726:	613b      	str	r3, [r7, #16]
 8000728:	693b      	ldr	r3, [r7, #16]
 800072a:	2bc7      	cmp	r3, #199	@ 0xc7
 800072c:	dddb      	ble.n	80006e6 <compute_vibration_irregularity+0x46>
 800072e:	e000      	b.n	8000732 <compute_vibration_irregularity+0x92>
            break;
 8000730:	bf00      	nop
    }

    // Trigger if enough pulses occur in the window
    return pulses >= VIBRATION_PULSE_THRESHOLD ? 1.0f : 0.0f;
 8000732:	697b      	ldr	r3, [r7, #20]
 8000734:	2bb3      	cmp	r3, #179	@ 0xb3
 8000736:	dd02      	ble.n	800073e <compute_vibration_irregularity+0x9e>
 8000738:	f04f 537e 	mov.w	r3, #1065353216	@ 0x3f800000
 800073c:	e001      	b.n	8000742 <compute_vibration_irregularity+0xa2>
 800073e:	f04f 0300 	mov.w	r3, #0
}
 8000742:	ee07 3a90 	vmov	s15, r3
 8000746:	eeb0 0a67 	vmov.f32	s0, s15
 800074a:	371c      	adds	r7, #28
 800074c:	46bd      	mov	sp, r7
 800074e:	f85d 7b04 	ldr.w	r7, [sp], #4
 8000752:	4770      	bx	lr
 8000754:	20000358 	.word	0x20000358
 8000758:	20000350 	.word	0x20000350
 800075c:	51eb851f 	.word	0x51eb851f
 8000760:	20000030 	.word	0x20000030
 8000764:	000f4240 	.word	0x000f4240

08000768 <update_system_leds>:
 /**
   * @brief PI 1&2: Updates the Red (PA5), Green (PA3), and Blue (PA4) LEDs based on system state.
   * (Active-LOW: Pin LOW = ON, Pin HIGH = OFF)
   * @param is_on Is the system ON (true) or OFF (false)?
 */
 void update_system_leds(bool is_on) {
 8000768:	b480      	push	{r7}
 800076a:	b083      	sub	sp, #12
 800076c:	af00      	add	r7, sp, #0
 800076e:	4603      	mov	r3, r0
 8000770:	71fb      	strb	r3, [r7, #7]
     if (is_on) {
 8000772:	79fb      	ldrb	r3, [r7, #7]
 8000774:	2b00      	cmp	r3, #0
 8000776:	d012      	beq.n	800079e <update_system_leds+0x36>
         // System ON: Green ON, Red OFF, Blue OFF
         GPIOA_ODR &= ~(1 << 3); // PA3 (Green) LOW -> ON
 8000778:	4b15      	ldr	r3, [pc, #84]	@ (80007d0 <update_system_leds+0x68>)
 800077a:	681b      	ldr	r3, [r3, #0]
 800077c:	4a14      	ldr	r2, [pc, #80]	@ (80007d0 <update_system_leds+0x68>)
 800077e:	f023 0308 	bic.w	r3, r3, #8
 8000782:	6013      	str	r3, [r2, #0]
         GPIOA_ODR |=  (1 << 5); // PA5 (Red) HIGH -> OFF
 8000784:	4b12      	ldr	r3, [pc, #72]	@ (80007d0 <update_system_leds+0x68>)
 8000786:	681b      	ldr	r3, [r3, #0]
 8000788:	4a11      	ldr	r2, [pc, #68]	@ (80007d0 <update_system_leds+0x68>)
 800078a:	f043 0320 	orr.w	r3, r3, #32
 800078e:	6013      	str	r3, [r2, #0]
         GPIOA_ODR |=  (1 << 4); // PA4 (Blue) HIGH -> OFF
 8000790:	4b0f      	ldr	r3, [pc, #60]	@ (80007d0 <update_system_leds+0x68>)
 8000792:	681b      	ldr	r3, [r3, #0]
 8000794:	4a0e      	ldr	r2, [pc, #56]	@ (80007d0 <update_system_leds+0x68>)
 8000796:	f043 0310 	orr.w	r3, r3, #16
 800079a:	6013      	str	r3, [r2, #0]
         // System OFF: Green OFF, Red ON, Blue OFF
         GPIOA_ODR |=  (1 << 3); // PA3 (Green) HIGH -> OFF
         GPIOA_ODR &= ~(1 << 5); // PA5 (Red) LOW -> ON
         GPIOA_ODR |=  (1 << 4); // PA4 (Blue) HIGH -> OFF
     }
 }
 800079c:	e011      	b.n	80007c2 <update_system_leds+0x5a>
         GPIOA_ODR |=  (1 << 3); // PA3 (Green) HIGH -> OFF
 800079e:	4b0c      	ldr	r3, [pc, #48]	@ (80007d0 <update_system_leds+0x68>)
 80007a0:	681b      	ldr	r3, [r3, #0]
 80007a2:	4a0b      	ldr	r2, [pc, #44]	@ (80007d0 <update_system_leds+0x68>)
 80007a4:	f043 0308 	orr.w	r3, r3, #8
 80007a8:	6013      	str	r3, [r2, #0]
         GPIOA_ODR &= ~(1 << 5); // PA5 (Red) LOW -> ON
 80007aa:	4b09      	ldr	r3, [pc, #36]	@ (80007d0 <update_system_leds+0x68>)
 80007ac:	681b      	ldr	r3, [r3, #0]
 80007ae:	4a08      	ldr	r2, [pc, #32]	@ (80007d0 <update_system_leds+0x68>)
 80007b0:	f023 0320 	bic.w	r3, r3, #32
 80007b4:	6013      	str	r3, [r2, #0]
         GPIOA_ODR |=  (1 << 4); // PA4 (Blue) HIGH -> OFF
 80007b6:	4b06      	ldr	r3, [pc, #24]	@ (80007d0 <update_system_leds+0x68>)
 80007b8:	681b      	ldr	r3, [r3, #0]
 80007ba:	4a05      	ldr	r2, [pc, #20]	@ (80007d0 <update_system_leds+0x68>)
 80007bc:	f043 0310 	orr.w	r3, r3, #16
 80007c0:	6013      	str	r3, [r2, #0]
 }
 80007c2:	bf00      	nop
 80007c4:	370c      	adds	r7, #12
 80007c6:	46bd      	mov	sp, r7
 80007c8:	f85d 7b04 	ldr.w	r7, [sp], #4
 80007cc:	4770      	bx	lr
 80007ce:	bf00      	nop
 80007d0:	42020014 	.word	0x42020014

080007d4 <set_monitoring_led_state>:

 /**
   * @brief PI 2: Updates LEDs for monitoring state (Blue ON, others OFF)
   * Called when system enters ALARM_STATE_MONITORING
 */
 void set_monitoring_led_state(void) {
 80007d4:	b480      	push	{r7}
 80007d6:	af00      	add	r7, sp, #0
     // Monitoring state: Blue ON, Red OFF, Green OFF
     GPIOA_ODR |=  (1 << 3); // PA3 (Green) HIGH -> OFF
 80007d8:	4b0b      	ldr	r3, [pc, #44]	@ (8000808 <set_monitoring_led_state+0x34>)
 80007da:	681b      	ldr	r3, [r3, #0]
 80007dc:	4a0a      	ldr	r2, [pc, #40]	@ (8000808 <set_monitoring_led_state+0x34>)
 80007de:	f043 0308 	orr.w	r3, r3, #8
 80007e2:	6013      	str	r3, [r2, #0]
     GPIOA_ODR |=  (1 << 5); // PA5 (Red) HIGH -> OFF
 80007e4:	4b08      	ldr	r3, [pc, #32]	@ (8000808 <set_monitoring_led_state+0x34>)
 80007e6:	681b      	ldr	r3, [r3, #0]
 80007e8:	4a07      	ldr	r2, [pc, #28]	@ (8000808 <set_monitoring_led_state+0x34>)
 80007ea:	f043 0320 	orr.w	r3, r3, #32
 80007ee:	6013      	str	r3, [r2, #0]
     GPIOA_ODR &= ~(1 << 4); // PA4 (Blue) LOW -> ON
 80007f0:	4b05      	ldr	r3, [pc, #20]	@ (8000808 <set_monitoring_led_state+0x34>)
 80007f2:	681b      	ldr	r3, [r3, #0]
 80007f4:	4a04      	ldr	r2, [pc, #16]	@ (8000808 <set_monitoring_led_state+0x34>)
 80007f6:	f023 0310 	bic.w	r3, r3, #16
 80007fa:	6013      	str	r3, [r2, #0]
 }
 80007fc:	bf00      	nop
 80007fe:	46bd      	mov	sp, r7
 8000800:	f85d 7b04 	ldr.w	r7, [sp], #4
 8000804:	4770      	bx	lr
 8000806:	bf00      	nop
 8000808:	42020014 	.word	0x42020014

0800080c <read_keypad_input>:
 /**
  * @brief PI 1: Scans the 4x3 keypad and returns the pressed key.
  * Implements a standard matrix scanning algorithm.
  * @return Pressed key character ('1', '#', etc.) or '\0' if no key is pressed.
  */
 char read_keypad_input(void) {
 800080c:	b580      	push	{r7, lr}
 800080e:	b084      	sub	sp, #16
 8000810:	af00      	add	r7, sp, #0
     const uint16_t ALL_COLS = g_col_pins[0] | g_col_pins[1] | g_col_pins[2];
 8000812:	2201      	movs	r2, #1
 8000814:	2302      	movs	r3, #2
 8000816:	4313      	orrs	r3, r2
 8000818:	b29b      	uxth	r3, r3
 800081a:	2204      	movs	r2, #4
 800081c:	4313      	orrs	r3, r2
 800081e:	80fb      	strh	r3, [r7, #6]

     for (int c = 0; c < 3; c++) { // Iterate through all columns
 8000820:	2300      	movs	r3, #0
 8000822:	60fb      	str	r3, [r7, #12]
 8000824:	e04e      	b.n	80008c4 <read_keypad_input+0xb8>
         // 1. Set all columns HIGH
         GPIOF_ODR |= ALL_COLS;
 8000826:	4b2e      	ldr	r3, [pc, #184]	@ (80008e0 <read_keypad_input+0xd4>)
 8000828:	681a      	ldr	r2, [r3, #0]
 800082a:	88fb      	ldrh	r3, [r7, #6]
 800082c:	492c      	ldr	r1, [pc, #176]	@ (80008e0 <read_keypad_input+0xd4>)
 800082e:	4313      	orrs	r3, r2
 8000830:	600b      	str	r3, [r1, #0]
         // 2. Set the current column LOW
         GPIOF_ODR &= ~(g_col_pins[c]);
 8000832:	4b2b      	ldr	r3, [pc, #172]	@ (80008e0 <read_keypad_input+0xd4>)
 8000834:	681b      	ldr	r3, [r3, #0]
 8000836:	492b      	ldr	r1, [pc, #172]	@ (80008e4 <read_keypad_input+0xd8>)
 8000838:	68fa      	ldr	r2, [r7, #12]
 800083a:	f831 2012 	ldrh.w	r2, [r1, r2, lsl #1]
 800083e:	43d2      	mvns	r2, r2
 8000840:	4611      	mov	r1, r2
 8000842:	4a27      	ldr	r2, [pc, #156]	@ (80008e0 <read_keypad_input+0xd4>)
 8000844:	400b      	ands	r3, r1
 8000846:	6013      	str	r3, [r2, #0]

         // 3. Read all rows
         uint32_t idr_val = GPIOF_IDR;
 8000848:	4b27      	ldr	r3, [pc, #156]	@ (80008e8 <read_keypad_input+0xdc>)
 800084a:	681b      	ldr	r3, [r3, #0]
 800084c:	603b      	str	r3, [r7, #0]

         for (int r = 0; r < 4; r++) { // Iterate through all rows
 800084e:	2300      	movs	r3, #0
 8000850:	60bb      	str	r3, [r7, #8]
 8000852:	e031      	b.n	80008b8 <read_keypad_input+0xac>
             // 4. Check if a key is pressed (row pin is pulled LOW)
             if (!(idr_val & g_row_pins[r])) {
 8000854:	4a25      	ldr	r2, [pc, #148]	@ (80008ec <read_keypad_input+0xe0>)
 8000856:	68bb      	ldr	r3, [r7, #8]
 8000858:	f832 3013 	ldrh.w	r3, [r2, r3, lsl #1]
 800085c:	461a      	mov	r2, r3
 800085e:	683b      	ldr	r3, [r7, #0]
 8000860:	4013      	ands	r3, r2
 8000862:	2b00      	cmp	r3, #0
 8000864:	d125      	bne.n	80008b2 <read_keypad_input+0xa6>
                 // 5. Wait for debouncing
                 delay_ms(50);
 8000866:	2032      	movs	r0, #50	@ 0x32
 8000868:	f000 f8c4 	bl	80009f4 <delay_ms>

                 // 6. Confirm the key is still pressed
                 if (!(GPIOF_IDR & g_row_pins[r])) {
 800086c:	4b1e      	ldr	r3, [pc, #120]	@ (80008e8 <read_keypad_input+0xdc>)
 800086e:	681b      	ldr	r3, [r3, #0]
 8000870:	491e      	ldr	r1, [pc, #120]	@ (80008ec <read_keypad_input+0xe0>)
 8000872:	68ba      	ldr	r2, [r7, #8]
 8000874:	f831 2012 	ldrh.w	r2, [r1, r2, lsl #1]
 8000878:	4013      	ands	r3, r2
 800087a:	2b00      	cmp	r3, #0
 800087c:	d119      	bne.n	80008b2 <read_keypad_input+0xa6>
                     // 7. Wait for the key to be released (blocking)
                     while (!(GPIOF_IDR & g_row_pins[r]));
 800087e:	bf00      	nop
 8000880:	4b19      	ldr	r3, [pc, #100]	@ (80008e8 <read_keypad_input+0xdc>)
 8000882:	681b      	ldr	r3, [r3, #0]
 8000884:	4919      	ldr	r1, [pc, #100]	@ (80008ec <read_keypad_input+0xe0>)
 8000886:	68ba      	ldr	r2, [r7, #8]
 8000888:	f831 2012 	ldrh.w	r2, [r1, r2, lsl #1]
 800088c:	4013      	ands	r3, r2
 800088e:	2b00      	cmp	r3, #0
 8000890:	d0f6      	beq.n	8000880 <read_keypad_input+0x74>
                     GPIOF_ODR |= ALL_COLS; // Reset columns
 8000892:	4b13      	ldr	r3, [pc, #76]	@ (80008e0 <read_keypad_input+0xd4>)
 8000894:	681a      	ldr	r2, [r3, #0]
 8000896:	88fb      	ldrh	r3, [r7, #6]
 8000898:	4911      	ldr	r1, [pc, #68]	@ (80008e0 <read_keypad_input+0xd4>)
 800089a:	4313      	orrs	r3, r2
 800089c:	600b      	str	r3, [r1, #0]
                     return g_keymap[r][c]; // Return the pressed key
 800089e:	4914      	ldr	r1, [pc, #80]	@ (80008f0 <read_keypad_input+0xe4>)
 80008a0:	68ba      	ldr	r2, [r7, #8]
 80008a2:	4613      	mov	r3, r2
 80008a4:	005b      	lsls	r3, r3, #1
 80008a6:	4413      	add	r3, r2
 80008a8:	18ca      	adds	r2, r1, r3
 80008aa:	68fb      	ldr	r3, [r7, #12]
 80008ac:	4413      	add	r3, r2
 80008ae:	781b      	ldrb	r3, [r3, #0]
 80008b0:	e012      	b.n	80008d8 <read_keypad_input+0xcc>
         for (int r = 0; r < 4; r++) { // Iterate through all rows
 80008b2:	68bb      	ldr	r3, [r7, #8]
 80008b4:	3301      	adds	r3, #1
 80008b6:	60bb      	str	r3, [r7, #8]
 80008b8:	68bb      	ldr	r3, [r7, #8]
 80008ba:	2b03      	cmp	r3, #3
 80008bc:	ddca      	ble.n	8000854 <read_keypad_input+0x48>
     for (int c = 0; c < 3; c++) { // Iterate through all columns
 80008be:	68fb      	ldr	r3, [r7, #12]
 80008c0:	3301      	adds	r3, #1
 80008c2:	60fb      	str	r3, [r7, #12]
 80008c4:	68fb      	ldr	r3, [r7, #12]
 80008c6:	2b02      	cmp	r3, #2
 80008c8:	ddad      	ble.n	8000826 <read_keypad_input+0x1a>
                 }
             }
         }
     }

     GPIOF_ODR |= ALL_COLS; // Ensure all columns are HIGH before exiting
 80008ca:	4b05      	ldr	r3, [pc, #20]	@ (80008e0 <read_keypad_input+0xd4>)
 80008cc:	681a      	ldr	r2, [r3, #0]
 80008ce:	88fb      	ldrh	r3, [r7, #6]
 80008d0:	4903      	ldr	r1, [pc, #12]	@ (80008e0 <read_keypad_input+0xd4>)
 80008d2:	4313      	orrs	r3, r2
 80008d4:	600b      	str	r3, [r1, #0]
     return '\0'; // No key pressed
 80008d6:	2300      	movs	r3, #0
 }
 80008d8:	4618      	mov	r0, r3
 80008da:	3710      	adds	r7, #16
 80008dc:	46bd      	mov	sp, r7
 80008de:	bd80      	pop	{r7, pc}
 80008e0:	42021414 	.word	0x42021414
 80008e4:	08000dc4 	.word	0x08000dc4
 80008e8:	42021410 	.word	0x42021410
 80008ec:	08000dcc 	.word	0x08000dcc
 80008f0:	08000db8 	.word	0x08000db8

080008f4 <process_keypad_input_with_password>:

  /**
   * @brief PI 1&2: Processes keypad input, buffers keys, and checks password.
   * This is the core logic for PI 1, matching the project flowchart.
   */
  void process_keypad_input_with_password(void) {
 80008f4:	b580      	push	{r7, lr}
 80008f6:	b082      	sub	sp, #8
 80008f8:	af00      	add	r7, sp, #0
     char key = read_keypad_input(); // Poll the hardware
 80008fa:	f7ff ff87 	bl	800080c <read_keypad_input>
 80008fe:	4603      	mov	r3, r0
 8000900:	70fb      	strb	r3, [r7, #3]

     if (key == '\0') {
 8000902:	78fb      	ldrb	r3, [r7, #3]
 8000904:	2b00      	cmp	r3, #0
 8000906:	d060      	beq.n	80009ca <process_keypad_input_with_password+0xd6>
         return; // No key pressed
     }

     if (key == '#') {
 8000908:	78fb      	ldrb	r3, [r7, #3]
 800090a:	2b23      	cmp	r3, #35	@ 0x23
 800090c:	d13b      	bne.n	8000986 <process_keypad_input_with_password+0x92>
         // ENTER ('#') was pressed, check the password
         if (strcmp(g_keypad_buffer, CORRECT_PASSWORD) == 0) {
 800090e:	4931      	ldr	r1, [pc, #196]	@ (80009d4 <process_keypad_input_with_password+0xe0>)
 8000910:	4831      	ldr	r0, [pc, #196]	@ (80009d8 <process_keypad_input_with_password+0xe4>)
 8000912:	f7ff fc8d 	bl	8000230 <strcmp>
 8000916:	4603      	mov	r3, r0
 8000918:	2b00      	cmp	r3, #0
 800091a:	d12d      	bne.n	8000978 <process_keypad_input_with_password+0x84>
             // --- PASSWORD CORRECT ---
             g_vibration_timestamp_index = 0;
 800091c:	4b2f      	ldr	r3, [pc, #188]	@ (80009dc <process_keypad_input_with_password+0xe8>)
 800091e:	2200      	movs	r2, #0
 8000920:	601a      	str	r2, [r3, #0]
             g_vibration_timestamp_count = 0;
 8000922:	4b2f      	ldr	r3, [pc, #188]	@ (80009e0 <process_keypad_input_with_password+0xec>)
 8000924:	2200      	movs	r2, #0
 8000926:	601a      	str	r2, [r3, #0]
             // Clear the entire vibration timestamp circular buffer
             for (int i = 0; i < VIBRATION_INTERVAL_BUFFER_SIZE; i++) {
 8000928:	2300      	movs	r3, #0
 800092a:	607b      	str	r3, [r7, #4]
 800092c:	e007      	b.n	800093e <process_keypad_input_with_password+0x4a>
                 g_vibration_timestamps[i] = 0;
 800092e:	4a2d      	ldr	r2, [pc, #180]	@ (80009e4 <process_keypad_input_with_password+0xf0>)
 8000930:	687b      	ldr	r3, [r7, #4]
 8000932:	2100      	movs	r1, #0
 8000934:	f842 1023 	str.w	r1, [r2, r3, lsl #2]
             for (int i = 0; i < VIBRATION_INTERVAL_BUFFER_SIZE; i++) {
 8000938:	687b      	ldr	r3, [r7, #4]
 800093a:	3301      	adds	r3, #1
 800093c:	607b      	str	r3, [r7, #4]
 800093e:	687b      	ldr	r3, [r7, #4]
 8000940:	2bc7      	cmp	r3, #199	@ 0xc7
 8000942:	ddf4      	ble.n	800092e <process_keypad_input_with_password+0x3a>
             }
             // Toggle the system state (ON <-> OFF)
             g_is_alarm_enabled = !g_is_alarm_enabled;
 8000944:	4b28      	ldr	r3, [pc, #160]	@ (80009e8 <process_keypad_input_with_password+0xf4>)
 8000946:	781b      	ldrb	r3, [r3, #0]
 8000948:	2b00      	cmp	r3, #0
 800094a:	bf14      	ite	ne
 800094c:	2301      	movne	r3, #1
 800094e:	2300      	moveq	r3, #0
 8000950:	b2db      	uxtb	r3, r3
 8000952:	f083 0301 	eor.w	r3, r3, #1
 8000956:	b2db      	uxtb	r3, r3
 8000958:	f003 0301 	and.w	r3, r3, #1
 800095c:	b2da      	uxtb	r2, r3
 800095e:	4b22      	ldr	r3, [pc, #136]	@ (80009e8 <process_keypad_input_with_password+0xf4>)
 8000960:	701a      	strb	r2, [r3, #0]
             g_current_alarm_state = ALARM_STATE_IDLE;
 8000962:	4b22      	ldr	r3, [pc, #136]	@ (80009ec <process_keypad_input_with_password+0xf8>)
 8000964:	2200      	movs	r2, #0
 8000966:	701a      	strb	r2, [r3, #0]
             set_buzzer_state(false);
 8000968:	2000      	movs	r0, #0
 800096a:	f7ff fe4f 	bl	800060c <set_buzzer_state>
             // Update the LEDs to reflect the new state
             update_system_leds(g_is_alarm_enabled);
 800096e:	4b1e      	ldr	r3, [pc, #120]	@ (80009e8 <process_keypad_input_with_password+0xf4>)
 8000970:	781b      	ldrb	r3, [r3, #0]
 8000972:	4618      	mov	r0, r3
 8000974:	f7ff fef8 	bl	8000768 <update_system_leds>
         }

         // Clear the buffer regardless of password correctness
         g_keypad_buffer_index = 0;
 8000978:	4b1d      	ldr	r3, [pc, #116]	@ (80009f0 <process_keypad_input_with_password+0xfc>)
 800097a:	2200      	movs	r2, #0
 800097c:	601a      	str	r2, [r3, #0]
         g_keypad_buffer[0] = '\0';
 800097e:	4b16      	ldr	r3, [pc, #88]	@ (80009d8 <process_keypad_input_with_password+0xe4>)
 8000980:	2200      	movs	r2, #0
 8000982:	701a      	strb	r2, [r3, #0]
 8000984:	e022      	b.n	80009cc <process_keypad_input_with_password+0xd8>

     } else if (key == '*') {
 8000986:	78fb      	ldrb	r3, [r7, #3]
 8000988:	2b2a      	cmp	r3, #42	@ 0x2a
 800098a:	d106      	bne.n	800099a <process_keypad_input_with_password+0xa6>
         // CLEAR ('*') was pressed
         g_keypad_buffer_index = 0;
 800098c:	4b18      	ldr	r3, [pc, #96]	@ (80009f0 <process_keypad_input_with_password+0xfc>)
 800098e:	2200      	movs	r2, #0
 8000990:	601a      	str	r2, [r3, #0]
         g_keypad_buffer[0] = '\0';
 8000992:	4b11      	ldr	r3, [pc, #68]	@ (80009d8 <process_keypad_input_with_password+0xe4>)
 8000994:	2200      	movs	r2, #0
 8000996:	701a      	strb	r2, [r3, #0]
 8000998:	e018      	b.n	80009cc <process_keypad_input_with_password+0xd8>

     } else if (key >= '0' && key <= '9') {
 800099a:	78fb      	ldrb	r3, [r7, #3]
 800099c:	2b2f      	cmp	r3, #47	@ 0x2f
 800099e:	d915      	bls.n	80009cc <process_keypad_input_with_password+0xd8>
 80009a0:	78fb      	ldrb	r3, [r7, #3]
 80009a2:	2b39      	cmp	r3, #57	@ 0x39
 80009a4:	d812      	bhi.n	80009cc <process_keypad_input_with_password+0xd8>
         // A digit was pressed, add it to the buffer
         if (g_keypad_buffer_index < (PASSWORD_BUFFER_SIZE - 1)) {
 80009a6:	4b12      	ldr	r3, [pc, #72]	@ (80009f0 <process_keypad_input_with_password+0xfc>)
 80009a8:	681b      	ldr	r3, [r3, #0]
 80009aa:	2b08      	cmp	r3, #8
 80009ac:	dc0e      	bgt.n	80009cc <process_keypad_input_with_password+0xd8>
             g_keypad_buffer[g_keypad_buffer_index++] = key;
 80009ae:	4b10      	ldr	r3, [pc, #64]	@ (80009f0 <process_keypad_input_with_password+0xfc>)
 80009b0:	681b      	ldr	r3, [r3, #0]
 80009b2:	1c5a      	adds	r2, r3, #1
 80009b4:	490e      	ldr	r1, [pc, #56]	@ (80009f0 <process_keypad_input_with_password+0xfc>)
 80009b6:	600a      	str	r2, [r1, #0]
 80009b8:	4907      	ldr	r1, [pc, #28]	@ (80009d8 <process_keypad_input_with_password+0xe4>)
 80009ba:	78fa      	ldrb	r2, [r7, #3]
 80009bc:	54ca      	strb	r2, [r1, r3]
             g_keypad_buffer[g_keypad_buffer_index] = '\0'; // Null-terminate the string
 80009be:	4b0c      	ldr	r3, [pc, #48]	@ (80009f0 <process_keypad_input_with_password+0xfc>)
 80009c0:	681b      	ldr	r3, [r3, #0]
 80009c2:	4a05      	ldr	r2, [pc, #20]	@ (80009d8 <process_keypad_input_with_password+0xe4>)
 80009c4:	2100      	movs	r1, #0
 80009c6:	54d1      	strb	r1, [r2, r3]
 80009c8:	e000      	b.n	80009cc <process_keypad_input_with_password+0xd8>
         return; // No key pressed
 80009ca:	bf00      	nop
         }
     }
 }
 80009cc:	3708      	adds	r7, #8
 80009ce:	46bd      	mov	sp, r7
 80009d0:	bd80      	pop	{r7, pc}
 80009d2:	bf00      	nop
 80009d4:	08000db0 	.word	0x08000db0
 80009d8:	20000020 	.word	0x20000020
 80009dc:	20000350 	.word	0x20000350
 80009e0:	20000358 	.word	0x20000358
 80009e4:	20000030 	.word	0x20000030
 80009e8:	2000001d 	.word	0x2000001d
 80009ec:	2000001c 	.word	0x2000001c
 80009f0:	2000002c 	.word	0x2000002c

080009f4 <delay_ms>:
 /**
  * @brief PI 1: Blocks execution for a specific duration using TIM6.
  * @param ms Number of milliseconds to delay.
  */
 void delay_ms(volatile uint32_t ms) {
 80009f4:	b480      	push	{r7}
 80009f6:	b085      	sub	sp, #20
 80009f8:	af00      	add	r7, sp, #0
 80009fa:	6078      	str	r0, [r7, #4]
     // This function polls the TIM6 Update Interrupt Flag (UIF)
     for (uint32_t i = 0; i < ms; i++) {
 80009fc:	2300      	movs	r3, #0
 80009fe:	60fb      	str	r3, [r7, #12]
 8000a00:	e00f      	b.n	8000a22 <delay_ms+0x2e>
         // Wait until the UIF bit (Bit 0) in the Status Register (SR) is set
         while ( (TIM6_SR & (1 << 0)) == 0 );
 8000a02:	bf00      	nop
 8000a04:	4b0c      	ldr	r3, [pc, #48]	@ (8000a38 <delay_ms+0x44>)
 8000a06:	681b      	ldr	r3, [r3, #0]
 8000a08:	f003 0301 	and.w	r3, r3, #1
 8000a0c:	2b00      	cmp	r3, #0
 8000a0e:	d0f9      	beq.n	8000a04 <delay_ms+0x10>
         // Clear the flag by writing 0 to it
         TIM6_SR &= ~(1 << 0);
 8000a10:	4b09      	ldr	r3, [pc, #36]	@ (8000a38 <delay_ms+0x44>)
 8000a12:	681b      	ldr	r3, [r3, #0]
 8000a14:	4a08      	ldr	r2, [pc, #32]	@ (8000a38 <delay_ms+0x44>)
 8000a16:	f023 0301 	bic.w	r3, r3, #1
 8000a1a:	6013      	str	r3, [r2, #0]
     for (uint32_t i = 0; i < ms; i++) {
 8000a1c:	68fb      	ldr	r3, [r7, #12]
 8000a1e:	3301      	adds	r3, #1
 8000a20:	60fb      	str	r3, [r7, #12]
 8000a22:	687b      	ldr	r3, [r7, #4]
 8000a24:	68fa      	ldr	r2, [r7, #12]
 8000a26:	429a      	cmp	r2, r3
 8000a28:	d3eb      	bcc.n	8000a02 <delay_ms+0xe>
     }
 }
 8000a2a:	bf00      	nop
 8000a2c:	bf00      	nop
 8000a2e:	3714      	adds	r7, #20
 8000a30:	46bd      	mov	sp, r7
 8000a32:	f85d 7b04 	ldr.w	r7, [sp], #4
 8000a36:	4770      	bx	lr
 8000a38:	40001010 	.word	0x40001010

08000a3c <update_alarm_logic>:


 // PI 2 & 3: Manages the alarm logic (PI 2: vibration complete, PI 3: acceleration mock)
 void update_alarm_logic(void) {
 8000a3c:	b580      	push	{r7, lr}
 8000a3e:	af00      	add	r7, sp, #0
     g_system_tick_ms += 100;
 8000a40:	4b28      	ldr	r3, [pc, #160]	@ (8000ae4 <update_alarm_logic+0xa8>)
 8000a42:	681b      	ldr	r3, [r3, #0]
 8000a44:	3364      	adds	r3, #100	@ 0x64
 8000a46:	4a27      	ldr	r2, [pc, #156]	@ (8000ae4 <update_alarm_logic+0xa8>)
 8000a48:	6013      	str	r3, [r2, #0]

     // No more artificial timer - timestamps handle the 5-second window automatically

     switch (g_current_alarm_state) {
 8000a4a:	4b27      	ldr	r3, [pc, #156]	@ (8000ae8 <update_alarm_logic+0xac>)
 8000a4c:	781b      	ldrb	r3, [r3, #0]
 8000a4e:	2b00      	cmp	r3, #0
 8000a50:	d002      	beq.n	8000a58 <update_alarm_logic+0x1c>
 8000a52:	2b01      	cmp	r3, #1
 8000a54:	d018      	beq.n	8000a88 <update_alarm_logic+0x4c>
                 g_current_alarm_state = ALARM_STATE_IDLE;
                 update_system_leds(g_is_alarm_enabled); // Restore normal LED state
             }
             break;
     }
 }
 8000a56:	e043      	b.n	8000ae0 <update_alarm_logic+0xa4>
        	 g_vibration_irregularity = compute_vibration_irregularity(); // PI 2
 8000a58:	f7ff fe22 	bl	80006a0 <compute_vibration_irregularity>
 8000a5c:	eef0 7a40 	vmov.f32	s15, s0
 8000a60:	4b22      	ldr	r3, [pc, #136]	@ (8000aec <update_alarm_logic+0xb0>)
 8000a62:	edc3 7a00 	vstr	s15, [r3]
             if (g_vibration_irregularity >= VIBRATION_IRREGULARITY_THRESHOLD) {
 8000a66:	4b21      	ldr	r3, [pc, #132]	@ (8000aec <update_alarm_logic+0xb0>)
 8000a68:	edd3 7a00 	vldr	s15, [r3]
 8000a6c:	ed9f 7a20 	vldr	s14, [pc, #128]	@ 8000af0 <update_alarm_logic+0xb4>
 8000a70:	eef4 7ac7 	vcmpe.f32	s15, s14
 8000a74:	eef1 fa10 	vmrs	APSR_nzcv, fpscr
 8000a78:	da00      	bge.n	8000a7c <update_alarm_logic+0x40>
             break;
 8000a7a:	e031      	b.n	8000ae0 <update_alarm_logic+0xa4>
                 g_current_alarm_state = ALARM_STATE_MONITORING;
 8000a7c:	4b1a      	ldr	r3, [pc, #104]	@ (8000ae8 <update_alarm_logic+0xac>)
 8000a7e:	2201      	movs	r2, #1
 8000a80:	701a      	strb	r2, [r3, #0]
                 set_monitoring_led_state(); // Turn on blue LED
 8000a82:	f7ff fea7 	bl	80007d4 <set_monitoring_led_state>
             break;
 8000a86:	e02b      	b.n	8000ae0 <update_alarm_logic+0xa4>
             read_accelerometer_adc(); // PI 3
 8000a88:	f7ff fdac 	bl	80005e4 <read_accelerometer_adc>
             add_acceleration_to_window(g_raw_accel_data); // PI 3
 8000a8c:	4b19      	ldr	r3, [pc, #100]	@ (8000af4 <update_alarm_logic+0xb8>)
 8000a8e:	e893 0007 	ldmia.w	r3, {r0, r1, r2}
 8000a92:	f7ff fde5 	bl	8000660 <add_acceleration_to_window>
             g_acceleration_pattern_value = compute_acceleration_pattern(); // PI 3
 8000a96:	f7ff fdf7 	bl	8000688 <compute_acceleration_pattern>
 8000a9a:	eef0 7a40 	vmov.f32	s15, s0
 8000a9e:	4b16      	ldr	r3, [pc, #88]	@ (8000af8 <update_alarm_logic+0xbc>)
 8000aa0:	edc3 7a00 	vstr	s15, [r3]
             if (g_acceleration_pattern_value >= ACCELERATION_PATTERN_THRESHOLD) {
 8000aa4:	4b14      	ldr	r3, [pc, #80]	@ (8000af8 <update_alarm_logic+0xbc>)
 8000aa6:	edd3 7a00 	vldr	s15, [r3]
 8000aaa:	eeb6 7a08 	vmov.f32	s14, #104	@ 0x3f400000  0.750
 8000aae:	eef4 7ac7 	vcmpe.f32	s15, s14
 8000ab2:	eef1 fa10 	vmrs	APSR_nzcv, fpscr
 8000ab6:	db03      	blt.n	8000ac0 <update_alarm_logic+0x84>
                 set_buzzer_state(true); // PI 2
 8000ab8:	2001      	movs	r0, #1
 8000aba:	f7ff fda7 	bl	800060c <set_buzzer_state>
             break;
 8000abe:	e00e      	b.n	8000ade <update_alarm_logic+0xa2>
             } else if (!g_buzzer_active) {
 8000ac0:	4b0e      	ldr	r3, [pc, #56]	@ (8000afc <update_alarm_logic+0xc0>)
 8000ac2:	781b      	ldrb	r3, [r3, #0]
 8000ac4:	f083 0301 	eor.w	r3, r3, #1
 8000ac8:	b2db      	uxtb	r3, r3
 8000aca:	2b00      	cmp	r3, #0
 8000acc:	d007      	beq.n	8000ade <update_alarm_logic+0xa2>
                 g_current_alarm_state = ALARM_STATE_IDLE;
 8000ace:	4b06      	ldr	r3, [pc, #24]	@ (8000ae8 <update_alarm_logic+0xac>)
 8000ad0:	2200      	movs	r2, #0
 8000ad2:	701a      	strb	r2, [r3, #0]
                 update_system_leds(g_is_alarm_enabled); // Restore normal LED state
 8000ad4:	4b0a      	ldr	r3, [pc, #40]	@ (8000b00 <update_alarm_logic+0xc4>)
 8000ad6:	781b      	ldrb	r3, [r3, #0]
 8000ad8:	4618      	mov	r0, r3
 8000ada:	f7ff fe45 	bl	8000768 <update_system_leds>
             break;
 8000ade:	bf00      	nop
 }
 8000ae0:	bf00      	nop
 8000ae2:	bd80      	pop	{r7, pc}
 8000ae4:	20000370 	.word	0x20000370
 8000ae8:	2000001c 	.word	0x2000001c
 8000aec:	20000354 	.word	0x20000354
 8000af0:	3f19999a 	.word	0x3f19999a
 8000af4:	20000364 	.word	0x20000364
 8000af8:	20000360 	.word	0x20000360
 8000afc:	20000374 	.word	0x20000374
 8000b00:	2000001d 	.word	0x2000001d

08000b04 <TIM15_IRQHandler>:
// Global interrupt counter for debugging
/**
 * @brief TIM15 Interrupt Handler - Captures vibration pulse timestamps
 * This ISR is called on every edge of the vibration sensor
 */
void TIM15_IRQHandler(void) {
 8000b04:	b480      	push	{r7}
 8000b06:	b085      	sub	sp, #20
 8000b08:	af00      	add	r7, sp, #0

    // Only process vibration if alarm is enabled
	if (!g_is_alarm_enabled) {
 8000b0a:	4b5b      	ldr	r3, [pc, #364]	@ (8000c78 <TIM15_IRQHandler+0x174>)
 8000b0c:	781b      	ldrb	r3, [r3, #0]
 8000b0e:	f083 0301 	eor.w	r3, r3, #1
 8000b12:	b2db      	uxtb	r3, r3
 8000b14:	2b00      	cmp	r3, #0
 8000b16:	d034      	beq.n	8000b82 <TIM15_IRQHandler+0x7e>
	    if (TIM15->SR & (1 << 1)) {        // CC1IF
 8000b18:	4b58      	ldr	r3, [pc, #352]	@ (8000c7c <TIM15_IRQHandler+0x178>)
 8000b1a:	691b      	ldr	r3, [r3, #16]
 8000b1c:	f003 0302 	and.w	r3, r3, #2
 8000b20:	2b00      	cmp	r3, #0
 8000b22:	d001      	beq.n	8000b28 <TIM15_IRQHandler+0x24>
	        TIM15->CCR1;
 8000b24:	4b55      	ldr	r3, [pc, #340]	@ (8000c7c <TIM15_IRQHandler+0x178>)
 8000b26:	6b5b      	ldr	r3, [r3, #52]	@ 0x34
	    }
	    if (TIM15->SR & (1 << 0)) {        // UIF
 8000b28:	4b54      	ldr	r3, [pc, #336]	@ (8000c7c <TIM15_IRQHandler+0x178>)
 8000b2a:	691b      	ldr	r3, [r3, #16]
 8000b2c:	f003 0301 	and.w	r3, r3, #1
 8000b30:	2b00      	cmp	r3, #0
 8000b32:	d019      	beq.n	8000b68 <TIM15_IRQHandler+0x64>
	        TIM15->SR &= ~(1 << 0);
 8000b34:	4b51      	ldr	r3, [pc, #324]	@ (8000c7c <TIM15_IRQHandler+0x178>)
 8000b36:	691b      	ldr	r3, [r3, #16]
 8000b38:	4a50      	ldr	r2, [pc, #320]	@ (8000c7c <TIM15_IRQHandler+0x178>)
 8000b3a:	f023 0301 	bic.w	r3, r3, #1
 8000b3e:	6113      	str	r3, [r2, #16]
            g_vibration_timestamp_index = 0;
 8000b40:	4b4f      	ldr	r3, [pc, #316]	@ (8000c80 <TIM15_IRQHandler+0x17c>)
 8000b42:	2200      	movs	r2, #0
 8000b44:	601a      	str	r2, [r3, #0]
            g_vibration_timestamp_count = 0;
 8000b46:	4b4f      	ldr	r3, [pc, #316]	@ (8000c84 <TIM15_IRQHandler+0x180>)
 8000b48:	2200      	movs	r2, #0
 8000b4a:	601a      	str	r2, [r3, #0]
            // Clear the entire vibration timestamp circular buffer
            for (int i = 0; i < VIBRATION_INTERVAL_BUFFER_SIZE; i++) {
 8000b4c:	2300      	movs	r3, #0
 8000b4e:	60fb      	str	r3, [r7, #12]
 8000b50:	e007      	b.n	8000b62 <TIM15_IRQHandler+0x5e>
                g_vibration_timestamps[i] = 0;
 8000b52:	4a4d      	ldr	r2, [pc, #308]	@ (8000c88 <TIM15_IRQHandler+0x184>)
 8000b54:	68fb      	ldr	r3, [r7, #12]
 8000b56:	2100      	movs	r1, #0
 8000b58:	f842 1023 	str.w	r1, [r2, r3, lsl #2]
            for (int i = 0; i < VIBRATION_INTERVAL_BUFFER_SIZE; i++) {
 8000b5c:	68fb      	ldr	r3, [r7, #12]
 8000b5e:	3301      	adds	r3, #1
 8000b60:	60fb      	str	r3, [r7, #12]
 8000b62:	68fb      	ldr	r3, [r7, #12]
 8000b64:	2bc7      	cmp	r3, #199	@ 0xc7
 8000b66:	ddf4      	ble.n	8000b52 <TIM15_IRQHandler+0x4e>
            }
	    }
	    if (TIM15->SR & (1 << 2)) {        // CC2IF  <-- FIX HERE
 8000b68:	4b44      	ldr	r3, [pc, #272]	@ (8000c7c <TIM15_IRQHandler+0x178>)
 8000b6a:	691b      	ldr	r3, [r3, #16]
 8000b6c:	f003 0304 	and.w	r3, r3, #4
 8000b70:	2b00      	cmp	r3, #0
 8000b72:	d07a      	beq.n	8000c6a <TIM15_IRQHandler+0x166>
	        TIM15->SR &= ~(1 << 2);
 8000b74:	4b41      	ldr	r3, [pc, #260]	@ (8000c7c <TIM15_IRQHandler+0x178>)
 8000b76:	691b      	ldr	r3, [r3, #16]
 8000b78:	4a40      	ldr	r2, [pc, #256]	@ (8000c7c <TIM15_IRQHandler+0x178>)
 8000b7a:	f023 0304 	bic.w	r3, r3, #4
 8000b7e:	6113      	str	r3, [r2, #16]
	    }
	    return;
 8000b80:	e073      	b.n	8000c6a <TIM15_IRQHandler+0x166>
	}
	else {

        // Check for timer overflow (UIF)
        if (TIM15->SR & (1 << 0)) {
 8000b82:	4b3e      	ldr	r3, [pc, #248]	@ (8000c7c <TIM15_IRQHandler+0x178>)
 8000b84:	691b      	ldr	r3, [r3, #16]
 8000b86:	f003 0301 	and.w	r3, r3, #1
 8000b8a:	2b00      	cmp	r3, #0
 8000b8c:	d019      	beq.n	8000bc2 <TIM15_IRQHandler+0xbe>
            TIM15->SR &= ~(1 << 0);  // Clear overflow flag
 8000b8e:	4b3b      	ldr	r3, [pc, #236]	@ (8000c7c <TIM15_IRQHandler+0x178>)
 8000b90:	691b      	ldr	r3, [r3, #16]
 8000b92:	4a3a      	ldr	r2, [pc, #232]	@ (8000c7c <TIM15_IRQHandler+0x178>)
 8000b94:	f023 0301 	bic.w	r3, r3, #1
 8000b98:	6113      	str	r3, [r2, #16]
            g_vibration_timestamp_index = 0;
 8000b9a:	4b39      	ldr	r3, [pc, #228]	@ (8000c80 <TIM15_IRQHandler+0x17c>)
 8000b9c:	2200      	movs	r2, #0
 8000b9e:	601a      	str	r2, [r3, #0]
            g_vibration_timestamp_count = 0;
 8000ba0:	4b38      	ldr	r3, [pc, #224]	@ (8000c84 <TIM15_IRQHandler+0x180>)
 8000ba2:	2200      	movs	r2, #0
 8000ba4:	601a      	str	r2, [r3, #0]
            // Clear the entire vibration timestamp circular buffer
            for (int i = 0; i < VIBRATION_INTERVAL_BUFFER_SIZE; i++) {
 8000ba6:	2300      	movs	r3, #0
 8000ba8:	60bb      	str	r3, [r7, #8]
 8000baa:	e007      	b.n	8000bbc <TIM15_IRQHandler+0xb8>
                g_vibration_timestamps[i] = 0;
 8000bac:	4a36      	ldr	r2, [pc, #216]	@ (8000c88 <TIM15_IRQHandler+0x184>)
 8000bae:	68bb      	ldr	r3, [r7, #8]
 8000bb0:	2100      	movs	r1, #0
 8000bb2:	f842 1023 	str.w	r1, [r2, r3, lsl #2]
            for (int i = 0; i < VIBRATION_INTERVAL_BUFFER_SIZE; i++) {
 8000bb6:	68bb      	ldr	r3, [r7, #8]
 8000bb8:	3301      	adds	r3, #1
 8000bba:	60bb      	str	r3, [r7, #8]
 8000bbc:	68bb      	ldr	r3, [r7, #8]
 8000bbe:	2bc7      	cmp	r3, #199	@ 0xc7
 8000bc0:	ddf4      	ble.n	8000bac <TIM15_IRQHandler+0xa8>
            }
        }
        // Check if CC1 interrupt flag is set (capture occurred)
        if (TIM15->SR & (1 << 1)) {
 8000bc2:	4b2e      	ldr	r3, [pc, #184]	@ (8000c7c <TIM15_IRQHandler+0x178>)
 8000bc4:	691b      	ldr	r3, [r3, #16]
 8000bc6:	f003 0302 	and.w	r3, r3, #2
 8000bca:	2b00      	cmp	r3, #0
 8000bcc:	d01c      	beq.n	8000c08 <TIM15_IRQHandler+0x104>
            // Clear the interrupt flag by reading CCR1
            uint32_t timestamp = TIM15->CCR1;
 8000bce:	4b2b      	ldr	r3, [pc, #172]	@ (8000c7c <TIM15_IRQHandler+0x178>)
 8000bd0:	6b5b      	ldr	r3, [r3, #52]	@ 0x34
 8000bd2:	607b      	str	r3, [r7, #4]

            g_vibration_timestamp_count++;
 8000bd4:	4b2b      	ldr	r3, [pc, #172]	@ (8000c84 <TIM15_IRQHandler+0x180>)
 8000bd6:	681b      	ldr	r3, [r3, #0]
 8000bd8:	3301      	adds	r3, #1
 8000bda:	4a2a      	ldr	r2, [pc, #168]	@ (8000c84 <TIM15_IRQHandler+0x180>)
 8000bdc:	6013      	str	r3, [r2, #0]

            // Add timestamp to circular buffer
            g_vibration_timestamps[g_vibration_timestamp_index] = timestamp;
 8000bde:	4b28      	ldr	r3, [pc, #160]	@ (8000c80 <TIM15_IRQHandler+0x17c>)
 8000be0:	681b      	ldr	r3, [r3, #0]
 8000be2:	4929      	ldr	r1, [pc, #164]	@ (8000c88 <TIM15_IRQHandler+0x184>)
 8000be4:	687a      	ldr	r2, [r7, #4]
 8000be6:	f841 2023 	str.w	r2, [r1, r3, lsl #2]
            g_vibration_timestamp_index = (g_vibration_timestamp_index + 1) % VIBRATION_INTERVAL_BUFFER_SIZE;
 8000bea:	4b25      	ldr	r3, [pc, #148]	@ (8000c80 <TIM15_IRQHandler+0x17c>)
 8000bec:	681b      	ldr	r3, [r3, #0]
 8000bee:	1c5a      	adds	r2, r3, #1
 8000bf0:	4b26      	ldr	r3, [pc, #152]	@ (8000c8c <TIM15_IRQHandler+0x188>)
 8000bf2:	fb83 1302 	smull	r1, r3, r3, r2
 8000bf6:	1199      	asrs	r1, r3, #6
 8000bf8:	17d3      	asrs	r3, r2, #31
 8000bfa:	1acb      	subs	r3, r1, r3
 8000bfc:	21c8      	movs	r1, #200	@ 0xc8
 8000bfe:	fb01 f303 	mul.w	r3, r1, r3
 8000c02:	1ad3      	subs	r3, r2, r3
 8000c04:	4a1e      	ldr	r2, [pc, #120]	@ (8000c80 <TIM15_IRQHandler+0x17c>)
 8000c06:	6013      	str	r3, [r2, #0]
        }
        // ---- NEW: CC2 Output Compare interrupt (1-second toggle) ----
        if (TIM15->SR & (1 << 2)) {      // CC2IF triggered?
 8000c08:	4b1c      	ldr	r3, [pc, #112]	@ (8000c7c <TIM15_IRQHandler+0x178>)
 8000c0a:	691b      	ldr	r3, [r3, #16]
 8000c0c:	f003 0304 	and.w	r3, r3, #4
 8000c10:	2b00      	cmp	r3, #0
 8000c12:	d02b      	beq.n	8000c6c <TIM15_IRQHandler+0x168>
            TIM15->SR &= ~(1 << 2);      // Clear CC2 flag
 8000c14:	4b19      	ldr	r3, [pc, #100]	@ (8000c7c <TIM15_IRQHandler+0x178>)
 8000c16:	691b      	ldr	r3, [r3, #16]
 8000c18:	4a18      	ldr	r2, [pc, #96]	@ (8000c7c <TIM15_IRQHandler+0x178>)
 8000c1a:	f023 0304 	bic.w	r3, r3, #4
 8000c1e:	6113      	str	r3, [r2, #16]

            // Toggle buzzer frequency
            high = !high;
 8000c20:	4b1b      	ldr	r3, [pc, #108]	@ (8000c90 <TIM15_IRQHandler+0x18c>)
 8000c22:	781b      	ldrb	r3, [r3, #0]
 8000c24:	2b00      	cmp	r3, #0
 8000c26:	bf14      	ite	ne
 8000c28:	2301      	movne	r3, #1
 8000c2a:	2300      	moveq	r3, #0
 8000c2c:	b2db      	uxtb	r3, r3
 8000c2e:	f083 0301 	eor.w	r3, r3, #1
 8000c32:	b2db      	uxtb	r3, r3
 8000c34:	f003 0301 	and.w	r3, r3, #1
 8000c38:	b2da      	uxtb	r2, r3
 8000c3a:	4b15      	ldr	r3, [pc, #84]	@ (8000c90 <TIM15_IRQHandler+0x18c>)
 8000c3c:	701a      	strb	r2, [r3, #0]

            if (high) {
 8000c3e:	4b14      	ldr	r3, [pc, #80]	@ (8000c90 <TIM15_IRQHandler+0x18c>)
 8000c40:	781b      	ldrb	r3, [r3, #0]
 8000c42:	2b00      	cmp	r3, #0
 8000c44:	d008      	beq.n	8000c58 <TIM15_IRQHandler+0x154>
                // Set 1000 Hz
                TIM16->ARR  = 999;
 8000c46:	4b13      	ldr	r3, [pc, #76]	@ (8000c94 <TIM15_IRQHandler+0x190>)
 8000c48:	f240 32e7 	movw	r2, #999	@ 0x3e7
 8000c4c:	62da      	str	r2, [r3, #44]	@ 0x2c
                TIM16->CCR1 = 500;
 8000c4e:	4b11      	ldr	r3, [pc, #68]	@ (8000c94 <TIM15_IRQHandler+0x190>)
 8000c50:	f44f 72fa 	mov.w	r2, #500	@ 0x1f4
 8000c54:	635a      	str	r2, [r3, #52]	@ 0x34
 8000c56:	e009      	b.n	8000c6c <TIM15_IRQHandler+0x168>
            } else {
                // Set 500 Hz
                TIM16->ARR  = 1999;
 8000c58:	4b0e      	ldr	r3, [pc, #56]	@ (8000c94 <TIM15_IRQHandler+0x190>)
 8000c5a:	f240 72cf 	movw	r2, #1999	@ 0x7cf
 8000c5e:	62da      	str	r2, [r3, #44]	@ 0x2c
                TIM16->CCR1 = 1000;
 8000c60:	4b0c      	ldr	r3, [pc, #48]	@ (8000c94 <TIM15_IRQHandler+0x190>)
 8000c62:	f44f 727a 	mov.w	r2, #1000	@ 0x3e8
 8000c66:	635a      	str	r2, [r3, #52]	@ 0x34
 8000c68:	e000      	b.n	8000c6c <TIM15_IRQHandler+0x168>
	    return;
 8000c6a:	bf00      	nop
            }
        }

    }
}
 8000c6c:	3714      	adds	r7, #20
 8000c6e:	46bd      	mov	sp, r7
 8000c70:	f85d 7b04 	ldr.w	r7, [sp], #4
 8000c74:	4770      	bx	lr
 8000c76:	bf00      	nop
 8000c78:	2000001d 	.word	0x2000001d
 8000c7c:	40014000 	.word	0x40014000
 8000c80:	20000350 	.word	0x20000350
 8000c84:	20000358 	.word	0x20000358
 8000c88:	20000030 	.word	0x20000030
 8000c8c:	51eb851f 	.word	0x51eb851f
 8000c90:	20000375 	.word	0x20000375
 8000c94:	40014400 	.word	0x40014400

08000c98 <main>:

 //=============================================================================
 // 7. Main Program Loop
 //=============================================================================

 int main() {
 8000c98:	b580      	push	{r7, lr}
 8000c9a:	af00      	add	r7, sp, #0
	 CPACR |= (0xF <<20);
 8000c9c:	4b15      	ldr	r3, [pc, #84]	@ (8000cf4 <main+0x5c>)
 8000c9e:	681b      	ldr	r3, [r3, #0]
 8000ca0:	4a14      	ldr	r2, [pc, #80]	@ (8000cf4 <main+0x5c>)
 8000ca2:	f443 0370 	orr.w	r3, r3, #15728640	@ 0xf00000
 8000ca6:	6013      	str	r3, [r2, #0]
     // --- PI 1&2: Initialize Hardware ---
     init_keypad();         // PI 1: Init Keypad (GPIOF)
 8000ca8:	f7ff fbde 	bl	8000468 <init_keypad>
     init_rgb_led();        // PI 1: Init LEDs (GPIOA)
 8000cac:	f7ff fc1e 	bl	80004ec <init_rgb_led>
     init_TIM6_for_1ms();   // PI 1: Init Timer (TIM6)
 8000cb0:	f7ff fac8 	bl	8000244 <init_TIM6_for_1ms>
     init_PI2_Timer();      // PI 2: Init Timer (TIM15 for vibration IC)
 8000cb4:	f7ff faee 	bl	8000294 <init_PI2_Timer>
     init_PI3_Timer();      // PI 3: Init Timer (TIM7 for ADC trigger)
 8000cb8:	f7ff fb50 	bl	800035c <init_PI3_Timer>

     // --- Initialize Peripherals ---
     init_accelerometer();    // PI 3: Mock
 8000cbc:	f7ff fc48 	bl	8000550 <init_accelerometer>
     init_vibration_sensor(); // PI 2: Complete
 8000cc0:	f7ff fc4e 	bl	8000560 <init_vibration_sensor>
     init_buzzer();           // PI 2: Complete
 8000cc4:	f7ff fc7e 	bl	80005c4 <init_buzzer>
     init_bluetooth_module(); // PI 3: Mock
 8000cc8:	f7ff fc84 	bl	80005d4 <init_bluetooth_module>

     // --- PI 1: Set Initial State ---
     g_is_alarm_enabled = false;             // Start in OFF state
 8000ccc:	4b0a      	ldr	r3, [pc, #40]	@ (8000cf8 <main+0x60>)
 8000cce:	2200      	movs	r2, #0
 8000cd0:	701a      	strb	r2, [r3, #0]
     update_system_leds(g_is_alarm_enabled); // (Red ON, Green OFF)
 8000cd2:	4b09      	ldr	r3, [pc, #36]	@ (8000cf8 <main+0x60>)
 8000cd4:	781b      	ldrb	r3, [r3, #0]
 8000cd6:	4618      	mov	r0, r3
 8000cd8:	f7ff fd46 	bl	8000768 <update_system_leds>

     // Main system loop (Bare-metal superloop)
     while (1) {

         // PI 1: Poll keypad and process password logic
         process_keypad_input_with_password();
 8000cdc:	f7ff fe0a 	bl	80008f4 <process_keypad_input_with_password>

         // PI 2 & 3: Run sensor logic if the project's alarm is armed
         if (g_is_alarm_enabled) {
 8000ce0:	4b05      	ldr	r3, [pc, #20]	@ (8000cf8 <main+0x60>)
 8000ce2:	781b      	ldrb	r3, [r3, #0]
 8000ce4:	2b00      	cmp	r3, #0
 8000ce6:	d001      	beq.n	8000cec <main+0x54>
             update_alarm_logic();
 8000ce8:	f7ff fea8 	bl	8000a3c <update_alarm_logic>
         }

         // PI 3 Mock: Check for bluetooth commands
         check_bluetooth_commands();
 8000cec:	f7ff fcb0 	bl	8000650 <check_bluetooth_commands>
         process_keypad_input_with_password();
 8000cf0:	e7f4      	b.n	8000cdc <main+0x44>
 8000cf2:	bf00      	nop
 8000cf4:	e000ed88 	.word	0xe000ed88
 8000cf8:	2000001d 	.word	0x2000001d

08000cfc <Reset_Handler>:

  .section .text.Reset_Handler
  .weak Reset_Handler
  .type Reset_Handler, %function
Reset_Handler:
  ldr   r0, =_estack
 8000cfc:	480d      	ldr	r0, [pc, #52]	@ (8000d34 <LoopForever+0x2>)
  mov   sp, r0          /* set stack pointer */
 8000cfe:	4685      	mov	sp, r0
/* Call the clock system initialization function.*/
  bl  SystemInit
 8000d00:	f3af 8000 	nop.w

/* Copy the data segment initializers from flash to SRAM */
  ldr r0, =_sdata
 8000d04:	480c      	ldr	r0, [pc, #48]	@ (8000d38 <LoopForever+0x6>)
  ldr r1, =_edata
 8000d06:	490d      	ldr	r1, [pc, #52]	@ (8000d3c <LoopForever+0xa>)
  ldr r2, =_sidata
 8000d08:	4a0d      	ldr	r2, [pc, #52]	@ (8000d40 <LoopForever+0xe>)
  movs r3, #0
 8000d0a:	2300      	movs	r3, #0
  b LoopCopyDataInit
 8000d0c:	e002      	b.n	8000d14 <LoopCopyDataInit>

08000d0e <CopyDataInit>:

CopyDataInit:
  ldr r4, [r2, r3]
 8000d0e:	58d4      	ldr	r4, [r2, r3]
  str r4, [r0, r3]
 8000d10:	50c4      	str	r4, [r0, r3]
  adds r3, r3, #4
 8000d12:	3304      	adds	r3, #4

08000d14 <LoopCopyDataInit>:

LoopCopyDataInit:
  adds r4, r0, r3
 8000d14:	18c4      	adds	r4, r0, r3
  cmp r4, r1
 8000d16:	428c      	cmp	r4, r1
  bcc CopyDataInit
 8000d18:	d3f9      	bcc.n	8000d0e <CopyDataInit>

/* Zero fill the bss segment. */
  ldr r2, =_sbss
 8000d1a:	4a0a      	ldr	r2, [pc, #40]	@ (8000d44 <LoopForever+0x12>)
  ldr r4, =_ebss
 8000d1c:	4c0a      	ldr	r4, [pc, #40]	@ (8000d48 <LoopForever+0x16>)
  movs r3, #0
 8000d1e:	2300      	movs	r3, #0
  b LoopFillZerobss
 8000d20:	e001      	b.n	8000d26 <LoopFillZerobss>

08000d22 <FillZerobss>:

FillZerobss:
  str  r3, [r2]
 8000d22:	6013      	str	r3, [r2, #0]
  adds r2, r2, #4
 8000d24:	3204      	adds	r2, #4

08000d26 <LoopFillZerobss>:

LoopFillZerobss:
  cmp r2, r4
 8000d26:	42a2      	cmp	r2, r4
  bcc FillZerobss
 8000d28:	d3fb      	bcc.n	8000d22 <FillZerobss>


/* Call static constructors */
  bl __libc_init_array
 8000d2a:	f000 f811 	bl	8000d50 <__libc_init_array>
/* Call the application's entry point.*/

  bl main
 8000d2e:	f7ff ffb3 	bl	8000c98 <main>

08000d32 <LoopForever>:

LoopForever:
  b LoopForever
 8000d32:	e7fe      	b.n	8000d32 <LoopForever>
  ldr   r0, =_estack
 8000d34:	20030000 	.word	0x20030000
  ldr r0, =_sdata
 8000d38:	20000000 	.word	0x20000000
  ldr r1, =_edata
 8000d3c:	20000000 	.word	0x20000000
  ldr r2, =_sidata
 8000d40:	08000de4 	.word	0x08000de4
  ldr r2, =_sbss
 8000d44:	20000000 	.word	0x20000000
  ldr r4, =_ebss
 8000d48:	20000378 	.word	0x20000378

08000d4c <ADC1_2_IRQHandler>:
 * @retval : None
*/
  .section .text.Default_Handler,"ax",%progbits
Default_Handler:
Infinite_Loop:
  b Infinite_Loop
 8000d4c:	e7fe      	b.n	8000d4c <ADC1_2_IRQHandler>
	...

08000d50 <__libc_init_array>:
 8000d50:	b570      	push	{r4, r5, r6, lr}
 8000d52:	4d0d      	ldr	r5, [pc, #52]	@ (8000d88 <__libc_init_array+0x38>)
 8000d54:	2600      	movs	r6, #0
 8000d56:	4c0d      	ldr	r4, [pc, #52]	@ (8000d8c <__libc_init_array+0x3c>)
 8000d58:	1b64      	subs	r4, r4, r5
 8000d5a:	10a4      	asrs	r4, r4, #2
 8000d5c:	42a6      	cmp	r6, r4
 8000d5e:	d109      	bne.n	8000d74 <__libc_init_array+0x24>
 8000d60:	4d0b      	ldr	r5, [pc, #44]	@ (8000d90 <__libc_init_array+0x40>)
 8000d62:	2600      	movs	r6, #0
 8000d64:	4c0b      	ldr	r4, [pc, #44]	@ (8000d94 <__libc_init_array+0x44>)
 8000d66:	f000 f817 	bl	8000d98 <_init>
 8000d6a:	1b64      	subs	r4, r4, r5
 8000d6c:	10a4      	asrs	r4, r4, #2
 8000d6e:	42a6      	cmp	r6, r4
 8000d70:	d105      	bne.n	8000d7e <__libc_init_array+0x2e>
 8000d72:	bd70      	pop	{r4, r5, r6, pc}
 8000d74:	f855 3b04 	ldr.w	r3, [r5], #4
 8000d78:	3601      	adds	r6, #1
 8000d7a:	4798      	blx	r3
 8000d7c:	e7ee      	b.n	8000d5c <__libc_init_array+0xc>
 8000d7e:	f855 3b04 	ldr.w	r3, [r5], #4
 8000d82:	3601      	adds	r6, #1
 8000d84:	4798      	blx	r3
 8000d86:	e7f2      	b.n	8000d6e <__libc_init_array+0x1e>
 8000d88:	08000ddc 	.word	0x08000ddc
 8000d8c:	08000ddc 	.word	0x08000ddc
 8000d90:	08000ddc 	.word	0x08000ddc
 8000d94:	08000de0 	.word	0x08000de0

08000d98 <_init>:
 8000d98:	b5f8      	push	{r3, r4, r5, r6, r7, lr}
 8000d9a:	bf00      	nop
 8000d9c:	bcf8      	pop	{r3, r4, r5, r6, r7}
 8000d9e:	bc08      	pop	{r3}
 8000da0:	469e      	mov	lr, r3
 8000da2:	4770      	bx	lr

08000da4 <_fini>:
 8000da4:	b5f8      	push	{r3, r4, r5, r6, r7, lr}
 8000da6:	bf00      	nop
 8000da8:	bcf8      	pop	{r3, r4, r5, r6, r7}
 8000daa:	bc08      	pop	{r3}
 8000dac:	469e      	mov	lr, r3
 8000dae:	4770      	bx	lr
